---
triple:          'arm64-apple-darwin'
binary-path:     test
relocations:
  - { offsetInCU: 0x5C, offset: 0x5C, size: 0x8, addend: 0x0, symName: __ZNSt3__119piecewise_constructE, symObjAddr: 0x15BB7, symBinAddr: 0x10001696F, symSize: 0x0 }
  - { offsetInCU: 0xAF1E, offset: 0xAF1E, size: 0x8, addend: 0x0, symName: __ZNSt3__16chronogtB8ue170006IxNS_5ratioILl1ELl1000EEExS3_EEbRKNS0_8durationIT_T0_EERKNS4_IT1_T2_EE, symObjAddr: 0x13040, symBinAddr: 0x100013B08, symSize: 0x30 }
  - { offsetInCU: 0xAF7F, offset: 0xAF7F, size: 0x8, addend: 0x0, symName: __ZNSt3__16chronoltB8ue170006IxNS_5ratioILl1ELl1000EEEeNS2_ILl1ELl1EEEEEbRKNS0_8durationIT_T0_EERKNS5_IT1_T2_EE, symObjAddr: 0x130AC, symBinAddr: 0x100013B74, symSize: 0x34 }
  - { offsetInCU: 0xAFE0, offset: 0xAFE0, size: 0x8, addend: 0x0, symName: __ZNSt3__16chrono13duration_castB8ue170006INS0_8durationIxNS_5ratioILl1ELl1000000000EEEEExNS3_ILl1ELl1000EEEEENS_9enable_ifIXsr13__is_durationIT_EE5valueES8_E4typeERKNS2_IT0_T1_EE, symObjAddr: 0x130E0, symBinAddr: 0x100013BA8, symSize: 0x30 }
  - { offsetInCU: 0xB027, offset: 0xB027, size: 0x8, addend: 0x0, symName: __ZNSt3__16chronoltB8ue170006IxNS_5ratioILl1ELl1000000000EEExNS2_ILl1ELl1000EEEEEbRKNS0_8durationIT_T0_EERKNS5_IT1_T2_EE, symObjAddr: 0x13110, symBinAddr: 0x100013BD8, symSize: 0x34 }
  - { offsetInCU: 0xB088, offset: 0xB088, size: 0x8, addend: 0x0, symName: __ZNSt3__16chronoltB8ue170006IxNS_5ratioILl1ELl1000EEExS3_EEbRKNS0_8durationIT_T0_EERKNS4_IT1_T2_EE, symObjAddr: 0x131A0, symBinAddr: 0x100013C68, symSize: 0x34 }
  - { offsetInCU: 0xB166, offset: 0xB166, size: 0x8, addend: 0x0, symName: __ZNSt3__16chrono13duration_castB8ue170006INS0_8durationIeNS_5ratioILl1ELl1000EEEEExS4_EENS_9enable_ifIXsr13__is_durationIT_EE5valueES7_E4typeERKNS2_IT0_T1_EE, symObjAddr: 0x133F4, symBinAddr: 0x100013EBC, symSize: 0x30 }
  - { offsetInCU: 0xB1F8, offset: 0xB1F8, size: 0x8, addend: 0x0, symName: __ZNSt3__16chrono13duration_castB8ue170006INS0_8durationIeNS_5ratioILl1ELl1000EEEEEeNS3_ILl1ELl1EEEEENS_9enable_ifIXsr13__is_durationIT_EE5valueES8_E4typeERKNS2_IT0_T1_EE, symObjAddr: 0x13514, symBinAddr: 0x100013FDC, symSize: 0x30 }
  - { offsetInCU: 0x13BD9, offset: 0x13BD9, size: 0x8, addend: 0x0, symName: __ZNSt3__124__put_character_sequenceB8ue170006IcNS_11char_traitsIcEEEERNS_13basic_ostreamIT_T0_EES7_PKS4_m, symObjAddr: 0x12880, symBinAddr: 0x100013348, symSize: 0x1EC }
  - { offsetInCU: 0x16555, offset: 0x16555, size: 0x8, addend: 0x0, symName: __ZNSt3__1neB8ue170006IPKcEEbRKNS_11__wrap_iterIT_EES7_, symObjAddr: 0x638, symBinAddr: 0x100001100, symSize: 0x34 }
  - { offsetInCU: 0x16598, offset: 0x16598, size: 0x8, addend: 0x0, symName: __ZNSt3__1neB8ue170006IPcEEbRKNS_11__wrap_iterIT_EES6_, symObjAddr: 0x684, symBinAddr: 0x10000114C, symSize: 0x34 }
  - { offsetInCU: 0x165DB, offset: 0x165DB, size: 0x8, addend: 0x0, symName: __ZNSt3__14findB8ue170006INS_11__wrap_iterIPcEEcEET_S4_S4_RKT0_, symObjAddr: 0x6B8, symBinAddr: 0x100001180, symSize: 0x78 }
  - { offsetInCU: 0x171DF, offset: 0x171DF, size: 0x8, addend: 0x0, symName: __ZNSt3__1neB8ue170006ERKNS_19__hash_map_iteratorINS_15__hash_iteratorIPNS_11__hash_nodeINS_17__hash_value_typeIcmEEPvEEEEEESB_, symObjAddr: 0x1050, symBinAddr: 0x100001B18, symSize: 0x30 }
  - { offsetInCU: 0x180A9, offset: 0x180A9, size: 0x8, addend: 0x0, symName: __ZNSt3__17getlineB8ue170006IcNS_11char_traitsIcEENS_9allocatorIcEEEERNS_13basic_istreamIT_T0_EES9_RNS_12basic_stringIS6_S7_T1_EE, symObjAddr: 0x1F04, symBinAddr: 0x1000029CC, symSize: 0x5C }
  - { offsetInCU: 0x18101, offset: 0x18101, size: 0x8, addend: 0x0, symName: __ZNSt3__1lsB8ue170006INS_11char_traitsIcEEEERNS_13basic_ostreamIcT_EES6_PKc, symObjAddr: 0x2244, symBinAddr: 0x100002D0C, symSize: 0x48 }
  - { offsetInCU: 0x18147, offset: 0x18147, size: 0x8, addend: 0x0, symName: __ZNSt3__14endlB8ue170006IcNS_11char_traitsIcEEEERNS_13basic_ostreamIT_T0_EES7_, symObjAddr: 0x22B8, symBinAddr: 0x100002D80, symSize: 0x58 }
  - { offsetInCU: 0x18187, offset: 0x18187, size: 0x8, addend: 0x0, symName: __ZNSt3__1plB8ue170006IcNS_11char_traitsIcEENS_9allocatorIcEEEENS_12basic_stringIT_T0_T1_EEOS9_SA_, symObjAddr: 0x2334, symBinAddr: 0x100002DFC, symSize: 0x40 }
  - { offsetInCU: 0x181DF, offset: 0x181DF, size: 0x8, addend: 0x0, symName: __ZNSt3__1lsB8ue170006IcNS_11char_traitsIcEENS_9allocatorIcEEEERNS_13basic_ostreamIT_T0_EES9_RKNS_12basic_stringIS6_S7_T1_EE, symObjAddr: 0x2374, symBinAddr: 0x100002E3C, symSize: 0x4C }
  - { offsetInCU: 0x1823C, offset: 0x1823C, size: 0x8, addend: 0x0, symName: __ZNSt3__111this_thread9sleep_forB8ue170006IxNS_5ratioILl1ELl1000EEEEEvRKNS_6chrono8durationIT_T0_EE, symObjAddr: 0x23C0, symBinAddr: 0x100002E88, symSize: 0xBC }
  - { offsetInCU: 0x182C8, offset: 0x182C8, size: 0x8, addend: 0x0, symName: __ZNSt3__1eqB8ue170006IPKcEEbRKNS_11__wrap_iterIT_EES7_, symObjAddr: 0x6E04, symBinAddr: 0x1000078CC, symSize: 0x48 }
  - { offsetInCU: 0x1830B, offset: 0x1830B, size: 0x8, addend: 0x0, symName: __ZNSt3__1eqB8ue170006IPcEEbRKNS_11__wrap_iterIT_EES6_, symObjAddr: 0x6E64, symBinAddr: 0x10000792C, symSize: 0x48 }
  - { offsetInCU: 0x1834E, offset: 0x1834E, size: 0x8, addend: 0x0, symName: __ZNSt3__116__constrain_hashB8ue170006Emm, symObjAddr: 0x8248, symBinAddr: 0x100008D10, symSize: 0x98 }
  - { offsetInCU: 0x18388, offset: 0x18388, size: 0x8, addend: 0x0, symName: __ZNSt3__13maxB8ue170006ImEERKT_S3_S3_, symObjAddr: 0x857C, symBinAddr: 0x100009044, symSize: 0x2C }
  - { offsetInCU: 0x183CB, offset: 0x183CB, size: 0x8, addend: 0x0, symName: __ZNSt3__116__is_hash_power2B8ue170006Em, symObjAddr: 0x85A8, symBinAddr: 0x100009070, symSize: 0x50 }
  - { offsetInCU: 0x183F7, offset: 0x183F7, size: 0x8, addend: 0x0, symName: __ZNSt3__17launderB8ue170006IKNS_4pairIKccEEEEPT_S6_, symObjAddr: 0x8960, symBinAddr: 0x100009428, symSize: 0x24 }
  - { offsetInCU: 0x1842E, offset: 0x1842E, size: 0x8, addend: 0x0, symName: __ZNSt3__19__launderB8ue170006IKNS_4pairIKccEEEEPT_S6_, symObjAddr: 0x8984, symBinAddr: 0x10000944C, symSize: 0x14 }
  - { offsetInCU: 0x184B6, offset: 0x184B6, size: 0x8, addend: 0x0, symName: __ZNSt3__117__libcpp_allocateB8ue170006Emm, symObjAddr: 0x8BEC, symBinAddr: 0x1000096B4, symSize: 0x60 }
  - { offsetInCU: 0x18510, offset: 0x18510, size: 0x8, addend: 0x0, symName: __ZNSt3__124__is_overaligned_for_newB8ue170006Em, symObjAddr: 0x8C64, symBinAddr: 0x10000972C, symSize: 0x20 }
  - { offsetInCU: 0x1853E, offset: 0x1853E, size: 0x8, addend: 0x0, symName: __ZNSt3__121__libcpp_operator_newB8ue170006IJmSt11align_val_tEEEPvDpT_, symObjAddr: 0x8C84, symBinAddr: 0x10000974C, symSize: 0x2C }
  - { offsetInCU: 0x1858B, offset: 0x1858B, size: 0x8, addend: 0x0, symName: __ZNSt3__121__libcpp_operator_newB8ue170006IJmEEEPvDpT_, symObjAddr: 0x8CB0, symBinAddr: 0x100009778, symSize: 0x24 }
  - { offsetInCU: 0x185C4, offset: 0x185C4, size: 0x8, addend: 0x0, symName: __ZNSt3__17launderB8ue170006INS_4pairIKccEEEEPT_S5_, symObjAddr: 0x8E6C, symBinAddr: 0x100009934, symSize: 0x24 }
  - { offsetInCU: 0x185FB, offset: 0x185FB, size: 0x8, addend: 0x0, symName: __ZNSt3__19__launderB8ue170006INS_4pairIKccEEEEPT_S5_, symObjAddr: 0x8E90, symBinAddr: 0x100009958, symSize: 0x14 }
  - { offsetInCU: 0x18632, offset: 0x18632, size: 0x8, addend: 0x0, symName: __ZNSt3__116__next_hash_pow2B8ue170006Em, symObjAddr: 0x9380, symBinAddr: 0x100009E48, symSize: 0x6C }
  - { offsetInCU: 0x1865E, offset: 0x1865E, size: 0x8, addend: 0x0, symName: __ZNSt3__119__libcpp_deallocateB8ue170006EPvmm, symObjAddr: 0x9674, symBinAddr: 0x10000A13C, symSize: 0x60 }
  - { offsetInCU: 0x186C3, offset: 0x186C3, size: 0x8, addend: 0x0, symName: __ZNSt3__127__do_deallocate_handle_sizeB8ue170006IJSt11align_val_tEEEvPvmDpT_, symObjAddr: 0x96D4, symBinAddr: 0x10000A19C, symSize: 0x30 }
  - { offsetInCU: 0x18716, offset: 0x18716, size: 0x8, addend: 0x0, symName: __ZNSt3__127__do_deallocate_handle_sizeB8ue170006IJEEEvPvmDpT_, symObjAddr: 0x9704, symBinAddr: 0x10000A1CC, symSize: 0x28 }
  - { offsetInCU: 0x18754, offset: 0x18754, size: 0x8, addend: 0x0, symName: __ZNSt3__124__libcpp_operator_deleteB8ue170006IJPvSt11align_val_tEEEvDpT_, symObjAddr: 0x972C, symBinAddr: 0x10000A1F4, symSize: 0x2C }
  - { offsetInCU: 0x1879D, offset: 0x1879D, size: 0x8, addend: 0x0, symName: __ZNSt3__124__libcpp_operator_deleteB8ue170006IJPvEEEvDpT_, symObjAddr: 0x9758, symBinAddr: 0x10000A220, symSize: 0x24 }
  - { offsetInCU: 0x187D2, offset: 0x187D2, size: 0x8, addend: 0x0, symName: __ZNSt3__112__libcpp_clzB8ue170006Em, symObjAddr: 0x9830, symBinAddr: 0x10000A2F8, symSize: 0x1C }
  - { offsetInCU: 0x187FE, offset: 0x187FE, size: 0x8, addend: 0x0, symName: __ZNSt3__13maxB8ue170006ImNS_6__lessIvvEEEERKT_S5_S5_T0_, symObjAddr: 0x984C, symBinAddr: 0x10000A314, symSize: 0x54 }
  - { offsetInCU: 0x1889D, offset: 0x1889D, size: 0x8, addend: 0x0, symName: __ZNSt3__122__make_exception_guardB8ue170006INS_6vectorIcNS_9allocatorIcEEE16__destroy_vectorEEENS_28__exception_guard_exceptionsIT_EES7_, symObjAddr: 0x9EB8, symBinAddr: 0x10000A980, symSize: 0x40 }
  - { offsetInCU: 0x188D2, offset: 0x188D2, size: 0x8, addend: 0x0, symName: __ZNSt3__119__allocate_at_leastB8ue170006INS_9allocatorIcEEEENS_19__allocation_resultINS_16allocator_traitsIT_E7pointerEEERS5_m, symObjAddr: 0xA2B8, symBinAddr: 0x10000AD80, symSize: 0x40 }
  - { offsetInCU: 0x18915, offset: 0x18915, size: 0x8, addend: 0x0, symName: __ZNSt3__13minB8ue170006ImEERKT_S3_S3_, symObjAddr: 0xA3F4, symBinAddr: 0x10000AEBC, symSize: 0x2C }
  - { offsetInCU: 0x18B42, offset: 0x18B42, size: 0x8, addend: 0x0, symName: __ZNSt3__13minB8ue170006ImNS_6__lessIvvEEEERKT_S5_S5_T0_, symObjAddr: 0xA480, symBinAddr: 0x10000AF48, symSize: 0x54 }
  - { offsetInCU: 0x18B9C, offset: 0x18B9C, size: 0x8, addend: 0x0, symName: __ZNSt3__120__throw_length_errorB8ue170006EPKc, symObjAddr: 0xA528, symBinAddr: 0x10000AFF0, symSize: 0x64 }
  - { offsetInCU: 0x18BC6, offset: 0x18BC6, size: 0x8, addend: 0x0, symName: __ZNSt3__112__to_addressB8ue170006IcEEPT_S2_, symObjAddr: 0xA754, symBinAddr: 0x10000B21C, symSize: 0x14 }
  - { offsetInCU: 0x18BFB, offset: 0x18BFB, size: 0x8, addend: 0x0, symName: __ZNSt3__130__uninitialized_allocator_copyB8ue170006INS_9allocatorIcEEPKcS4_PcEET2_RT_T0_T1_S6_, symObjAddr: 0xA804, symBinAddr: 0x10000B2CC, symSize: 0x80 }
  - { offsetInCU: 0x18C98, offset: 0x18C98, size: 0x8, addend: 0x0, symName: __ZNSt3__114__unwrap_rangeB8ue170006IPKcS2_EENS_4pairIT0_S4_EET_S6_, symObjAddr: 0xA8F4, symBinAddr: 0x10000B3BC, symSize: 0x60 }
  - { offsetInCU: 0x18CE4, offset: 0x18CE4, size: 0x8, addend: 0x0, symName: __ZNSt3__135__uninitialized_allocator_copy_implB8ue170006INS_9allocatorIcEEKcccLPv0EEEPT2_RT_PT0_SA_S6_, symObjAddr: 0xA954, symBinAddr: 0x10000B41C, symSize: 0x38 }
  - { offsetInCU: 0x18D65, offset: 0x18D65, size: 0x8, addend: 0x0, symName: __ZNSt3__113__unwrap_iterB8ue170006IPcNS_18__unwrap_iter_implIS1_Lb1EEELi0EEEDTclsrT0_8__unwrapclsr3stdE7declvalIT_EEEES5_, symObjAddr: 0xA98C, symBinAddr: 0x10000B454, symSize: 0x24 }
  - { offsetInCU: 0x18DA9, offset: 0x18DA9, size: 0x8, addend: 0x0, symName: __ZNSt3__113__rewrap_iterB8ue170006IPcS1_NS_18__unwrap_iter_implIS1_Lb1EEEEET_S4_T0_, symObjAddr: 0xA9B0, symBinAddr: 0x10000B478, symSize: 0x3C }
  - { offsetInCU: 0x18DFE, offset: 0x18DFE, size: 0x8, addend: 0x0, symName: __ZNSt3__19make_pairB8ue170006IPKcS2_EENS_4pairINS_18__unwrap_ref_decayIT_E4typeENS4_IT0_E4typeEEEOS5_OS8_, symObjAddr: 0xA9EC, symBinAddr: 0x10000B4B4, symSize: 0x38 }
  - { offsetInCU: 0x18E4D, offset: 0x18E4D, size: 0x8, addend: 0x0, symName: __ZNSt3__113__unwrap_iterB8ue170006IPKcNS_18__unwrap_iter_implIS2_Lb1EEELi0EEEDTclsrT0_8__unwrapclsr3stdE7declvalIT_EEEES6_, symObjAddr: 0xAA24, symBinAddr: 0x10000B4EC, symSize: 0x24 }
  - { offsetInCU: 0x18FB8, offset: 0x18FB8, size: 0x8, addend: 0x0, symName: __ZNSt3__112__to_addressB8ue170006IKcEEPT_S3_, symObjAddr: 0xAADC, symBinAddr: 0x10000B5A4, symSize: 0x14 }
  - { offsetInCU: 0x18FED, offset: 0x18FED, size: 0x8, addend: 0x0, symName: __ZNSt3__14copyB8ue170006IPKcPcEET0_T_S5_S4_, symObjAddr: 0xAAF0, symBinAddr: 0x10000B5B8, symSize: 0x40 }
  - { offsetInCU: 0x19047, offset: 0x19047, size: 0x8, addend: 0x0, symName: __ZNSt3__16__copyB8ue170006INS_17_ClassicAlgPolicyEPKcS3_PcEENS_4pairIT0_T2_EES6_T1_S7_, symObjAddr: 0xAB30, symBinAddr: 0x10000B5F8, symSize: 0x44 }
  - { offsetInCU: 0x190B3, offset: 0x190B3, size: 0x8, addend: 0x0, symName: __ZNSt3__123__dispatch_copy_or_moveB8ue170006INS_17_ClassicAlgPolicyENS_11__copy_loopIS1_EENS_14__copy_trivialEPKcS6_PcEENS_4pairIT2_T4_EES9_T3_SA_, symObjAddr: 0xAB74, symBinAddr: 0x10000B63C, symSize: 0x44 }
  - { offsetInCU: 0x19131, offset: 0x19131, size: 0x8, addend: 0x0, symName: __ZNSt3__121__unwrap_and_dispatchB8ue170006INS_10__overloadINS_11__copy_loopINS_17_ClassicAlgPolicyEEENS_14__copy_trivialEEEPKcS8_PcLi0EEENS_4pairIT0_T2_EESB_T1_SC_, symObjAddr: 0xABB8, symBinAddr: 0x10000B680, symSize: 0xB4 }
  - { offsetInCU: 0x19308, offset: 0x19308, size: 0x8, addend: 0x0, symName: __ZNSt3__19make_pairB8ue170006IPKcPcEENS_4pairINS_18__unwrap_ref_decayIT_E4typeENS5_IT0_E4typeEEEOS6_OS9_, symObjAddr: 0xACB4, symBinAddr: 0x10000B77C, symSize: 0x38 }
  - { offsetInCU: 0x19357, offset: 0x19357, size: 0x8, addend: 0x0, symName: __ZNSt3__114__rewrap_rangeB8ue170006IPKcS2_EET_S3_T0_, symObjAddr: 0xACEC, symBinAddr: 0x10000B7B4, symSize: 0x2C }
  - { offsetInCU: 0x193A3, offset: 0x193A3, size: 0x8, addend: 0x0, symName: __ZNSt3__119__copy_trivial_implB8ue170006IKccEENS_4pairIPT_PT0_EES4_S4_S6_, symObjAddr: 0xAD18, symBinAddr: 0x10000B7E0, symSize: 0x78 }
  - { offsetInCU: 0x1940B, offset: 0x1940B, size: 0x8, addend: 0x0, symName: __ZNSt3__119__constexpr_memmoveB8ue170006IcKcLi0EEEPT_S3_PT0_NS_15__element_countE, symObjAddr: 0xAD90, symBinAddr: 0x10000B858, symSize: 0x64 }
  - { offsetInCU: 0x19479, offset: 0x19479, size: 0x8, addend: 0x0, symName: __ZNSt3__19make_pairB8ue170006IRPKcPcEENS_4pairINS_18__unwrap_ref_decayIT_E4typeENS6_IT0_E4typeEEEOS7_OSA_, symObjAddr: 0xADF4, symBinAddr: 0x10000B8BC, symSize: 0x38 }
  - { offsetInCU: 0x194C8, offset: 0x194C8, size: 0x8, addend: 0x0, symName: __ZNSt3__113__rewrap_iterB8ue170006IPKcS2_NS_18__unwrap_iter_implIS2_Lb1EEEEET_S5_T0_, symObjAddr: 0xAF0C, symBinAddr: 0x10000B9D4, symSize: 0x3C }
  - { offsetInCU: 0x195A3, offset: 0x195A3, size: 0x8, addend: 0x0, symName: __ZNSt3__113__rewrap_iterB8ue170006INS_11__wrap_iterIPcEES2_NS_18__unwrap_iter_implIS3_Lb1EEEEET_S6_T0_, symObjAddr: 0xB65C, symBinAddr: 0x10000C124, symSize: 0x4C }
  - { offsetInCU: 0x195F8, offset: 0x195F8, size: 0x8, addend: 0x0, symName: __ZNSt3__111__find_implB8ue170006IccNS_10__identityELi0EEEPT_S3_S3_RKT0_RT1_, symObjAddr: 0xB6A8, symBinAddr: 0x10000C170, symSize: 0x78 }
  - { offsetInCU: 0x1967F, offset: 0x1967F, size: 0x8, addend: 0x0, symName: __ZNSt3__113__unwrap_iterB8ue170006INS_11__wrap_iterIPcEENS_18__unwrap_iter_implIS3_Lb1EEELi0EEEDTclsrT0_8__unwrapclsr3stdE7declvalIT_EEEES7_, symObjAddr: 0xB720, symBinAddr: 0x10000C1E8, symSize: 0x2C }
  - { offsetInCU: 0x19716, offset: 0x19716, size: 0x8, addend: 0x0, symName: __ZNSt3__112__to_addressB8ue170006INS_11__wrap_iterIPcEEvEEu7__decayIDTclsr19__to_address_helperIT_EE6__callclsr3stdE7declvalIRKS4_EEEEES6_, symObjAddr: 0xB7DC, symBinAddr: 0x10000C2A4, symSize: 0x24 }
  - { offsetInCU: 0x197F1, offset: 0x197F1, size: 0x8, addend: 0x0, symName: __ZNSt3__118__constexpr_memchrB8ue170006IccEEPT_S2_T0_m, symObjAddr: 0xB884, symBinAddr: 0x10000C34C, symSize: 0x40 }
  - { offsetInCU: 0x1989E, offset: 0x1989E, size: 0x8, addend: 0x0, symName: __ZNSt3__116forward_as_tupleB8ue170006IJRKcEEENS_5tupleIJDpOT_EEES6_, symObjAddr: 0xC04C, symBinAddr: 0x10000CB14, symSize: 0x2C }
  - { offsetInCU: 0x198D7, offset: 0x198D7, size: 0x8, addend: 0x0, symName: __ZNSt3__116forward_as_tupleB8ue170006IJEEENS_5tupleIJDpOT_EEES4_, symObjAddr: 0xC078, symBinAddr: 0x10000CB40, symSize: 0x4 }
  - { offsetInCU: 0x19906, offset: 0x19906, size: 0x8, addend: 0x0, symName: __ZNSt3__13getB8ue170006ILm0EJRKcEEERNS_13tuple_elementIXT_ENS_5tupleIJDpT0_EEEE4typeERS7_, symObjAddr: 0xC34C, symBinAddr: 0x10000CE14, symSize: 0x24 }
  - { offsetInCU: 0x199A0, offset: 0x199A0, size: 0x8, addend: 0x0, symName: __ZNSt3__17launderB8ue170006IKNS_4pairIKcmEEEEPT_S6_, symObjAddr: 0xD708, symBinAddr: 0x10000E1D0, symSize: 0x24 }
  - { offsetInCU: 0x199D7, offset: 0x199D7, size: 0x8, addend: 0x0, symName: __ZNSt3__19__launderB8ue170006IKNS_4pairIKcmEEEEPT_S6_, symObjAddr: 0xD72C, symBinAddr: 0x10000E1F4, symSize: 0x14 }
  - { offsetInCU: 0x19A5F, offset: 0x19A5F, size: 0x8, addend: 0x0, symName: __ZNSt3__17launderB8ue170006INS_4pairIKcmEEEEPT_S5_, symObjAddr: 0xDB08, symBinAddr: 0x10000E5D0, symSize: 0x24 }
  - { offsetInCU: 0x19A96, offset: 0x19A96, size: 0x8, addend: 0x0, symName: __ZNSt3__19__launderB8ue170006INS_4pairIKcmEEEEPT_S5_, symObjAddr: 0xDB2C, symBinAddr: 0x10000E5F4, symSize: 0x14 }
  - { offsetInCU: 0x19ACD, offset: 0x19ACD, size: 0x8, addend: 0x0, symName: __ZNSt3__1neB8ue170006ERKNS_15__hash_iteratorIPNS_11__hash_nodeINS_17__hash_value_typeIcmEEPvEEEES9_, symObjAddr: 0xEB54, symBinAddr: 0x10000F61C, symSize: 0x34 }
  - { offsetInCU: 0x19B0A, offset: 0x19B0A, size: 0x8, addend: 0x0, symName: __ZNSt3__1eqB8ue170006ERKNS_15__hash_iteratorIPNS_11__hash_nodeINS_17__hash_value_typeIcmEEPvEEEES9_, symObjAddr: 0xEB88, symBinAddr: 0x10000F650, symSize: 0x30 }
  - { offsetInCU: 0x19B7A, offset: 0x19B7A, size: 0x8, addend: 0x0, symName: __ZNSt3__116forward_as_tupleB8ue170006IJcEEENS_5tupleIJDpOT_EEES4_, symObjAddr: 0xF7FC, symBinAddr: 0x1000102C4, symSize: 0x2C }
  - { offsetInCU: 0x19BB3, offset: 0x19BB3, size: 0x8, addend: 0x0, symName: __ZNSt3__13getB8ue170006ILm0EJOcEEERNS_13tuple_elementIXT_ENS_5tupleIJDpT0_EEEE4typeERS6_, symObjAddr: 0xFAC8, symBinAddr: 0x100010590, symSize: 0x24 }
  - { offsetInCU: 0x19C0B, offset: 0x19C0B, size: 0x8, addend: 0x0, symName: __ZNSt3__17getlineB8ue170006IcNS_11char_traitsIcEENS_9allocatorIcEEEERNS_13basic_istreamIT_T0_EES9_RNS_12basic_stringIS6_S7_T1_EES6_, symObjAddr: 0x10140, symBinAddr: 0x100010C08, symSize: 0x238 }
  - { offsetInCU: 0x19CC9, offset: 0x19CC9, size: 0x8, addend: 0x0, symName: __ZNSt3__19use_facetB8ue170006INS_5ctypeIcEEEERKT_RKNS_6localeE, symObjAddr: 0x107A8, symBinAddr: 0x100011270, symSize: 0x2C }
  - { offsetInCU: 0x1A196, offset: 0x1A196, size: 0x8, addend: 0x0, symName: __ZNSt3__112__to_addressB8ue170006INS_12basic_stringIcNS_11char_traitsIcEENS_9allocatorIcEEEEEEPT_S8_, symObjAddr: 0x10D24, symBinAddr: 0x1000117EC, symSize: 0x14 }
  - { offsetInCU: 0x1A1CB, offset: 0x1A1CB, size: 0x8, addend: 0x0, symName: __ZNSt3__119__allocate_at_leastB8ue170006INS_9allocatorINS_12basic_stringIcNS_11char_traitsIcEENS1_IcEEEEEEEENS_19__allocation_resultINS_16allocator_traitsIT_E7pointerEEERSA_m, symObjAddr: 0x11640, symBinAddr: 0x100012108, symSize: 0x40 }
  - { offsetInCU: 0x1A20E, offset: 0x1A20E, size: 0x8, addend: 0x0, symName: __ZNSt3__142__uninitialized_allocator_move_if_noexceptB8ue170006INS_9allocatorINS_12basic_stringIcNS_11char_traitsIcEENS1_IcEEEEEENS_16reverse_iteratorIPS6_EESA_SA_EET2_RT_T0_T1_SB_, symObjAddr: 0x117F8, symBinAddr: 0x1000122C0, symSize: 0x12C }
  - { offsetInCU: 0x1A2AE, offset: 0x1A2AE, size: 0x8, addend: 0x0, symName: __ZNSt3__14swapB8ue170006IPNS_12basic_stringIcNS_11char_traitsIcEENS_9allocatorIcEEEEEENS_9enable_ifIXaasr21is_move_constructibleIT_EE5valuesr18is_move_assignableIS9_EE5valueEvE4typeERS9_SC_, symObjAddr: 0x11970, symBinAddr: 0x100012438, symSize: 0x3C }
  - { offsetInCU: 0x1A2FF, offset: 0x1A2FF, size: 0x8, addend: 0x0, symName: __ZNSt3__122__make_exception_guardB8ue170006INS_29_AllocatorDestroyRangeReverseINS_9allocatorINS_12basic_stringIcNS_11char_traitsIcEENS2_IcEEEEEENS_16reverse_iteratorIPS7_EEEEEENS_28__exception_guard_exceptionsIT_EESE_, symObjAddr: 0x11A74, symBinAddr: 0x10001253C, symSize: 0x4C }
  - { offsetInCU: 0x1A335, offset: 0x1A335, size: 0x8, addend: 0x0, symName: __ZNSt3__1neB8ue170006IPNS_12basic_stringIcNS_11char_traitsIcEENS_9allocatorIcEEEES7_EEbRKNS_16reverse_iteratorIT_EERKNS8_IT0_EE, symObjAddr: 0x11B04, symBinAddr: 0x1000125CC, symSize: 0x48 }
  - { offsetInCU: 0x1A381, offset: 0x1A381, size: 0x8, addend: 0x0, symName: __ZNSt3__112__to_addressB8ue170006INS_16reverse_iteratorIPNS_12basic_stringIcNS_11char_traitsIcEENS_9allocatorIcEEEEEEvEEu7__decayIDTclsr19__to_address_helperIT_EE6__callclsr3stdE7declvalIRKSA_EEEEESC_, symObjAddr: 0x11B80, symBinAddr: 0x100012648, symSize: 0x24 }
  - { offsetInCU: 0x1A3E0, offset: 0x1A3E0, size: 0x8, addend: 0x0, symName: __ZNSt3__119__allocator_destroyB8ue170006INS_9allocatorINS_12basic_stringIcNS_11char_traitsIcEENS1_IcEEEEEENS_16reverse_iteratorINS8_IPS6_EEEESB_EEvRT_T0_T1_, symObjAddr: 0x11EDC, symBinAddr: 0x1000129A4, symSize: 0x70 }
  - { offsetInCU: 0x1A445, offset: 0x1A445, size: 0x8, addend: 0x0, symName: __ZNSt3__1neB8ue170006INS_16reverse_iteratorIPNS_12basic_stringIcNS_11char_traitsIcEENS_9allocatorIcEEEEEES9_EEbRKNS1_IT_EERKNS1_IT0_EE, symObjAddr: 0x11F88, symBinAddr: 0x100012A50, symSize: 0x60 }
  - { offsetInCU: 0x1A491, offset: 0x1A491, size: 0x8, addend: 0x0, symName: __ZNSt3__112__to_addressB8ue170006INS_16reverse_iteratorINS1_IPNS_12basic_stringIcNS_11char_traitsIcEENS_9allocatorIcEEEEEEEEvEEu7__decayIDTclsr19__to_address_helperIT_EE6__callclsr3stdE7declvalIRKSB_EEEEESD_, symObjAddr: 0x11FE8, symBinAddr: 0x100012AB0, symSize: 0x24 }
  - { offsetInCU: 0x1A4F0, offset: 0x1A4F0, size: 0x8, addend: 0x0, symName: __ZNSt3__116__pad_and_outputB8ue170006IcNS_11char_traitsIcEEEENS_19ostreambuf_iteratorIT_T0_EES6_PKS4_S8_S8_RNS_8ios_baseES4_, symObjAddr: 0x12ABC, symBinAddr: 0x100013584, symSize: 0x240 }
  - { offsetInCU: 0x1A5BF, offset: 0x1A5BF, size: 0x8, addend: 0x0, symName: __ZNSt3__118__constexpr_strlenB8ue170006EPKc, symObjAddr: 0x12FA8, symBinAddr: 0x100013A70, symSize: 0x24 }
  - { offsetInCU: 0x1AE49, offset: 0x1AE49, size: 0x8, addend: 0x0, symName: __ZSt28__throw_bad_array_new_lengthB8ue170006v, symObjAddr: 0x8BB8, symBinAddr: 0x100009680, symSize: 0x34 }
  - { offsetInCU: 0x1C3DD, offset: 0x1C3DD, size: 0x8, addend: 0x0, symName: __ZNSt3__16vectorINS_12basic_stringIcNS_11char_traitsIcEENS_9allocatorIcEEEENS4_IS6_EEE26__swap_out_circular_bufferERNS_14__split_bufferIS6_RS7_EE, symObjAddr: 0x112D0, symBinAddr: 0x100011D98, symSize: 0x110 }
  - { offsetInCU: 0x1C560, offset: 0x1C560, size: 0x8, addend: 0x0, symName: __ZNKSt3__16chrono13__duration_ltINS0_8durationIxNS_5ratioILl1ELl1000EEEEENS2_IeNS3_ILl1ELl1EEEEEEclB8ue170006ERKS5_RKS7_, symObjAddr: 0x132A4, symBinAddr: 0x100013D6C, symSize: 0x78 }
  - { offsetInCU: 0x1C5E0, offset: 0x1C5E0, size: 0x8, addend: 0x0, symName: __ZNKSt3__16chrono15__duration_castINS0_8durationIeNS_5ratioILl1ELl1EEEEENS2_IeNS3_ILl1ELl1000EEEEENS3_ILl1000ELl1EEELb0ELb1EEclB8ue170006ERKS5_, symObjAddr: 0x13544, symBinAddr: 0x10001400C, symSize: 0x4C }
  - { offsetInCU: 0x1C64F, offset: 0x1C64F, size: 0x8, addend: 0x0, symName: __ZNKSt3__16chrono15__duration_castINS0_8durationIxNS_5ratioILl1ELl1000EEEEENS2_IxNS3_ILl1ELl1000000000EEEEENS3_ILl1000000ELl1EEELb0ELb1EEclB8ue170006ERKS5_, symObjAddr: 0x135A8, symBinAddr: 0x100014070, symSize: 0x4C }
  - { offsetInCU: 0x1C698, offset: 0x1C698, size: 0x8, addend: 0x0, symName: __ZNKSt3__16chrono13__duration_ltINS0_8durationIxNS_5ratioILl1ELl1000000000EEEEENS2_IxNS3_ILl1ELl1000EEEEEEclB8ue170006ERKS5_RKS7_, symObjAddr: 0x13658, symBinAddr: 0x100014120, symSize: 0x6C }
  - { offsetInCU: 0x1EA08, offset: 0x1EA08, size: 0x8, addend: 0x0, symName: __Z8balancedRKNSt3__112basic_stringIcNS_11char_traitsIcEENS_9allocatorIcEEEE, symObjAddr: 0x0, symBinAddr: 0x100000AC8, symSize: 0x4B8 }
  - { offsetInCU: 0x1EAE2, offset: 0x1EAE2, size: 0x8, addend: 0x0, symName: __ZNSt3__14pairIKccEC1B8ue170006IccLPv0EEEOT_OT0_, symObjAddr: 0x4B8, symBinAddr: 0x100000F80, symSize: 0x3C }
  - { offsetInCU: 0x1EC08, offset: 0x1EC08, size: 0x8, addend: 0x0, symName: __ZNSt3__113unordered_mapIccNS_4hashIcEENS_8equal_toIcEENS_9allocatorINS_4pairIKccEEEEEC1ESt16initializer_listIS8_E, symObjAddr: 0x4F4, symBinAddr: 0x100000FBC, symSize: 0x3C }
  - { offsetInCU: 0x1EC43, offset: 0x1EC43, size: 0x8, addend: 0x0, symName: __ZNSt3__16vectorIcNS_9allocatorIcEEEC1B8ue170006ESt16initializer_listIcE, symObjAddr: 0x530, symBinAddr: 0x100000FF8, symSize: 0x3C }
  - { offsetInCU: 0x1EFC0, offset: 0x1EFC0, size: 0x8, addend: 0x0, symName: __ZN5StackIcEC1Ev, symObjAddr: 0x56C, symBinAddr: 0x100001034, symSize: 0x2C }
  - { offsetInCU: 0x1EFEA, offset: 0x1EFEA, size: 0x8, addend: 0x0, symName: __ZNKSt3__112basic_stringIcNS_11char_traitsIcEENS_9allocatorIcEEE5beginB8ue170006Ev, symObjAddr: 0x598, symBinAddr: 0x100001060, symSize: 0x4C }
  - { offsetInCU: 0x1F010, offset: 0x1F010, size: 0x8, addend: 0x0, symName: __ZNKSt3__112basic_stringIcNS_11char_traitsIcEENS_9allocatorIcEEE3endB8ue170006Ev, symObjAddr: 0x5E4, symBinAddr: 0x1000010AC, symSize: 0x54 }
  - { offsetInCU: 0x1F036, offset: 0x1F036, size: 0x8, addend: 0x0, symName: __ZNKSt3__111__wrap_iterIPKcEdeB8ue170006Ev, symObjAddr: 0x66C, symBinAddr: 0x100001134, symSize: 0x18 }
  - { offsetInCU: 0x1F05C, offset: 0x1F05C, size: 0x8, addend: 0x0, symName: __ZNSt3__16vectorIcNS_9allocatorIcEEE5beginB8ue170006Ev, symObjAddr: 0x730, symBinAddr: 0x1000011F8, symSize: 0x30 }
  - { offsetInCU: 0x1F084, offset: 0x1F084, size: 0x8, addend: 0x0, symName: __ZNSt3__16vectorIcNS_9allocatorIcEEE3endB8ue170006Ev, symObjAddr: 0x760, symBinAddr: 0x100001228, symSize: 0x30 }
  - { offsetInCU: 0x1F0AC, offset: 0x1F0AC, size: 0x8, addend: 0x0, symName: __ZN5StackIcE4pushEc, symObjAddr: 0x790, symBinAddr: 0x100001258, symSize: 0x2C }
  - { offsetInCU: 0x1F0E0, offset: 0x1F0E0, size: 0x8, addend: 0x0, symName: __ZN5StackIcE3popEv, symObjAddr: 0x7BC, symBinAddr: 0x100001284, symSize: 0x28 }
  - { offsetInCU: 0x1F106, offset: 0x1F106, size: 0x8, addend: 0x0, symName: __ZNSt3__113unordered_mapIccNS_4hashIcEENS_8equal_toIcEENS_9allocatorINS_4pairIKccEEEEEixERS7_, symObjAddr: 0x7E4, symBinAddr: 0x1000012AC, symSize: 0x80 }
  - { offsetInCU: 0x1F13D, offset: 0x1F13D, size: 0x8, addend: 0x0, symName: __ZNSt3__111__wrap_iterIPKcEppB8ue170006Ev, symObjAddr: 0x864, symBinAddr: 0x10000132C, symSize: 0x20 }
  - { offsetInCU: 0x1F163, offset: 0x1F163, size: 0x8, addend: 0x0, symName: __ZN5StackIcE10stack_sizeEv, symObjAddr: 0x884, symBinAddr: 0x10000134C, symSize: 0x24 }
  - { offsetInCU: 0x1F189, offset: 0x1F189, size: 0x8, addend: 0x0, symName: __ZN5StackIcED1Ev, symObjAddr: 0x8A8, symBinAddr: 0x100001370, symSize: 0x2C }
  - { offsetInCU: 0x1F1B5, offset: 0x1F1B5, size: 0x8, addend: 0x0, symName: __ZNSt3__16vectorIcNS_9allocatorIcEEED1B8ue170006Ev, symObjAddr: 0x8D4, symBinAddr: 0x10000139C, symSize: 0x2C }
  - { offsetInCU: 0x1F1DF, offset: 0x1F1DF, size: 0x8, addend: 0x0, symName: __ZNSt3__113unordered_mapIccNS_4hashIcEENS_8equal_toIcEENS_9allocatorINS_4pairIKccEEEEED1B8ue170006Ev, symObjAddr: 0x900, symBinAddr: 0x1000013C8, symSize: 0x2C }
  - { offsetInCU: 0x1F208, offset: 0x1F208, size: 0x8, addend: 0x0, symName: __Z13infix_postfixRKNSt3__112basic_stringIcNS_11char_traitsIcEENS_9allocatorIcEEEE, symObjAddr: 0x92C, symBinAddr: 0x1000013F4, symSize: 0x62C }
  - { offsetInCU: 0x1F2D5, offset: 0x1F2D5, size: 0x8, addend: 0x0, symName: __ZNSt16invalid_argumentC1B8ue170006EPKc, symObjAddr: 0xF58, symBinAddr: 0x100001A20, symSize: 0x34 }
  - { offsetInCU: 0x1F3F0, offset: 0x1F3F0, size: 0x8, addend: 0x0, symName: __ZNSt3__113unordered_mapIcmNS_4hashIcEENS_8equal_toIcEENS_9allocatorINS_4pairIKcmEEEEEC1ESt16initializer_listIS8_E, symObjAddr: 0xF8C, symBinAddr: 0x100001A54, symSize: 0x3C }
  - { offsetInCU: 0x1F42B, offset: 0x1F42B, size: 0x8, addend: 0x0, symName: __ZNSt3__112basic_stringIcNS_11char_traitsIcEENS_9allocatorIcEEEC1B8ue170006Ev, symObjAddr: 0xFC8, symBinAddr: 0x100001A90, symSize: 0x2C }
  - { offsetInCU: 0x1F455, offset: 0x1F455, size: 0x8, addend: 0x0, symName: __ZNSt3__112basic_stringIcNS_11char_traitsIcEENS_9allocatorIcEEEpLB8ue170006Ec, symObjAddr: 0xFF4, symBinAddr: 0x100001ABC, symSize: 0x34 }
  - { offsetInCU: 0x1F48A, offset: 0x1F48A, size: 0x8, addend: 0x0, symName: __ZN5StackIcE4peekEv, symObjAddr: 0x1028, symBinAddr: 0x100001AF0, symSize: 0x28 }
  - { offsetInCU: 0x1F4B0, offset: 0x1F4B0, size: 0x8, addend: 0x0, symName: __ZNSt3__113unordered_mapIcmNS_4hashIcEENS_8equal_toIcEENS_9allocatorINS_4pairIKcmEEEEE4findB8ue170006ERS7_, symObjAddr: 0x1080, symBinAddr: 0x100001B48, symSize: 0x40 }
  - { offsetInCU: 0x1F4E5, offset: 0x1F4E5, size: 0x8, addend: 0x0, symName: __ZNSt3__113unordered_mapIcmNS_4hashIcEENS_8equal_toIcEENS_9allocatorINS_4pairIKcmEEEEE3endB8ue170006Ev, symObjAddr: 0x10C0, symBinAddr: 0x100001B88, symSize: 0x38 }
  - { offsetInCU: 0x1F50B, offset: 0x1F50B, size: 0x8, addend: 0x0, symName: __ZNSt3__113unordered_mapIcmNS_4hashIcEENS_8equal_toIcEENS_9allocatorINS_4pairIKcmEEEEEixERS7_, symObjAddr: 0x10F8, symBinAddr: 0x100001BC0, symSize: 0x80 }
  - { offsetInCU: 0x1F542, offset: 0x1F542, size: 0x8, addend: 0x0, symName: __ZNSt3__113unordered_mapIcmNS_4hashIcEENS_8equal_toIcEENS_9allocatorINS_4pairIKcmEEEEEixEOc, symObjAddr: 0x1178, symBinAddr: 0x100001C40, symSize: 0x80 }
  - { offsetInCU: 0x1F579, offset: 0x1F579, size: 0x8, addend: 0x0, symName: __ZN5StackIcE8is_emptyEv, symObjAddr: 0x11F8, symBinAddr: 0x100001CC0, symSize: 0x30 }
  - { offsetInCU: 0x1F59F, offset: 0x1F59F, size: 0x8, addend: 0x0, symName: __ZNSt3__113unordered_mapIcmNS_4hashIcEENS_8equal_toIcEENS_9allocatorINS_4pairIKcmEEEEED1B8ue170006Ev, symObjAddr: 0x1228, symBinAddr: 0x100001CF0, symSize: 0x2C }
  - { offsetInCU: 0x1F5C8, offset: 0x1F5C8, size: 0x8, addend: 0x0, symName: __Z12postfix_evalRKNSt3__112basic_stringIcNS_11char_traitsIcEENS_9allocatorIcEEEE, symObjAddr: 0x1254, symBinAddr: 0x100001D1C, symSize: 0x25C }
  - { offsetInCU: 0x1F67D, offset: 0x1F67D, size: 0x8, addend: 0x0, symName: __Z10infix_evalRKNSt3__112basic_stringIcNS_11char_traitsIcEENS_9allocatorIcEEEE, symObjAddr: 0x14C8, symBinAddr: 0x100001F90, symSize: 0x78 }
  - { offsetInCU: 0x1F6C5, offset: 0x1F6C5, size: 0x8, addend: 0x0, symName: __Z10ringBufferv, symObjAddr: 0x1540, symBinAddr: 0x100002008, symSize: 0x7E8 }
  - { offsetInCU: 0x1FC55, offset: 0x1FC55, size: 0x8, addend: 0x0, symName: __ZN5QueueI4TaskEC1Ev, symObjAddr: 0x1D28, symBinAddr: 0x1000027F0, symSize: 0x2C }
  - { offsetInCU: 0x1FDC3, offset: 0x1FDC3, size: 0x8, addend: 0x0, symName: __ZNSt3__113basic_fstreamIcNS_11char_traitsIcEEEC1Ev, symObjAddr: 0x1D54, symBinAddr: 0x10000281C, symSize: 0x100 }
  - { offsetInCU: 0x1FDEF, offset: 0x1FDEF, size: 0x8, addend: 0x0, symName: __ZNSt3__113basic_fstreamIcNS_11char_traitsIcEEE4openEPKcj, symObjAddr: 0x1E54, symBinAddr: 0x10000291C, symSize: 0x84 }
  - { offsetInCU: 0x1FE35, offset: 0x1FE35, size: 0x8, addend: 0x0, symName: __ZNKSt3__113basic_fstreamIcNS_11char_traitsIcEEE7is_openEv, symObjAddr: 0x1ED8, symBinAddr: 0x1000029A0, symSize: 0x2C }
  - { offsetInCU: 0x1FE5D, offset: 0x1FE5D, size: 0x8, addend: 0x0, symName: __ZNKSt3__19basic_iosIcNS_11char_traitsIcEEEcvbB8ue170006Ev, symObjAddr: 0x1F60, symBinAddr: 0x100002A28, symSize: 0x2C }
  - { offsetInCU: 0x1FE83, offset: 0x1FE83, size: 0x8, addend: 0x0, symName: __ZNSt3__16vectorINS_12basic_stringIcNS_11char_traitsIcEENS_9allocatorIcEEEENS4_IS6_EEEC1B8ue170006Ev, symObjAddr: 0x1F8C, symBinAddr: 0x100002A54, symSize: 0x2C }
  - { offsetInCU: 0x1FEAD, offset: 0x1FEAD, size: 0x8, addend: 0x0, symName: __ZNKSt3__112basic_stringIcNS_11char_traitsIcEENS_9allocatorIcEEE6substrB8ue170006Emm, symObjAddr: 0x1FB8, symBinAddr: 0x100002A80, symSize: 0x68 }
  - { offsetInCU: 0x1FEF1, offset: 0x1FEF1, size: 0x8, addend: 0x0, symName: __ZNSt3__16vectorINS_12basic_stringIcNS_11char_traitsIcEENS_9allocatorIcEEEENS4_IS6_EEE9push_backB8ue170006ERKS6_, symObjAddr: 0x2020, symBinAddr: 0x100002AE8, symSize: 0x6C }
  - { offsetInCU: 0x1FF28, offset: 0x1FF28, size: 0x8, addend: 0x0, symName: __ZNSt3__112basic_stringIcNS_11char_traitsIcEENS_9allocatorIcEEEaSB8ue170006EOS5_, symObjAddr: 0x208C, symBinAddr: 0x100002B54, symSize: 0x34 }
  - { offsetInCU: 0x1FF5D, offset: 0x1FF5D, size: 0x8, addend: 0x0, symName: __ZNSt3__16vectorINS_12basic_stringIcNS_11char_traitsIcEENS_9allocatorIcEEEENS4_IS6_EEEixB8ue170006Em, symObjAddr: 0x20C0, symBinAddr: 0x100002B88, symSize: 0x2C }
  - { offsetInCU: 0x1FF94, offset: 0x1FF94, size: 0x8, addend: 0x0, symName: __ZN5QueueI4TaskE7enqueueES0_, symObjAddr: 0x20EC, symBinAddr: 0x100002BB4, symSize: 0x70 }
  - { offsetInCU: 0x1FFD4, offset: 0x1FFD4, size: 0x8, addend: 0x0, symName: __ZN4TaskC1ERKS_, symObjAddr: 0x215C, symBinAddr: 0x100002C24, symSize: 0x34 }
  - { offsetInCU: 0x20009, offset: 0x20009, size: 0x8, addend: 0x0, symName: __ZN4TaskD1Ev, symObjAddr: 0x2190, symBinAddr: 0x100002C58, symSize: 0x2C }
  - { offsetInCU: 0x20035, offset: 0x20035, size: 0x8, addend: 0x0, symName: __ZNSt3__16vectorINS_12basic_stringIcNS_11char_traitsIcEENS_9allocatorIcEEEENS4_IS6_EEED1B8ue170006Ev, symObjAddr: 0x21BC, symBinAddr: 0x100002C84, symSize: 0x2C }
  - { offsetInCU: 0x2005F, offset: 0x2005F, size: 0x8, addend: 0x0, symName: __ZN5QueueI4TaskE8is_emptyEv, symObjAddr: 0x21E8, symBinAddr: 0x100002CB0, symSize: 0x30 }
  - { offsetInCU: 0x20085, offset: 0x20085, size: 0x8, addend: 0x0, symName: __ZN5QueueI4TaskE7dequeueEv, symObjAddr: 0x2218, symBinAddr: 0x100002CE0, symSize: 0x2C }
  - { offsetInCU: 0x200AB, offset: 0x200AB, size: 0x8, addend: 0x0, symName: __ZNSt3__113basic_ostreamIcNS_11char_traitsIcEEElsB8ue170006EPFRS3_S4_E, symObjAddr: 0x228C, symBinAddr: 0x100002D54, symSize: 0x2C }
  - { offsetInCU: 0x200DF, offset: 0x200DF, size: 0x8, addend: 0x0, symName: __ZNKSt3__112basic_stringIcNS_11char_traitsIcEENS_9allocatorIcEEE6lengthB8ue170006Ev, symObjAddr: 0x2310, symBinAddr: 0x100002DD8, symSize: 0x24 }
  - { offsetInCU: 0x20110, offset: 0x20110, size: 0x8, addend: 0x0, symName: __ZNSt3__16chrono8durationIxNS_5ratioILl1ELl1000EEEEC1B8ue170006IiEERKT_PNS_9enable_ifIXaasr14is_convertibleIS8_xEE5valueooL_ZNS_17integral_constantIbLb0EE5valueEEntsr23treat_as_floating_pointIS6_EE5valueEvE4typeE, symObjAddr: 0x247C, symBinAddr: 0x100002F44, symSize: 0x3C }
  - { offsetInCU: 0x20161, offset: 0x20161, size: 0x8, addend: 0x0, symName: __ZNSt3__113basic_fstreamIcNS_11char_traitsIcEEED1Ev, symObjAddr: 0x24B8, symBinAddr: 0x100002F80, symSize: 0x40 }
  - { offsetInCU: 0x2018D, offset: 0x2018D, size: 0x8, addend: 0x0, symName: __ZN5QueueI4TaskED1Ev, symObjAddr: 0x24F8, symBinAddr: 0x100002FC0, symSize: 0x2C }
  - { offsetInCU: 0x201B9, offset: 0x201B9, size: 0x8, addend: 0x0, symName: _main, symObjAddr: 0x2524, symBinAddr: 0x100002FEC, symSize: 0x3CF4 }
  - { offsetInCU: 0x207BE, offset: 0x207BE, size: 0x8, addend: 0x0, symName: __ZN5DequeINSt3__112basic_stringIcNS0_11char_traitsIcEENS0_9allocatorIcEEEEEC1Ev, symObjAddr: 0x6218, symBinAddr: 0x100006CE0, symSize: 0x2C }
  - { offsetInCU: 0x207E8, offset: 0x207E8, size: 0x8, addend: 0x0, symName: __ZN5DequeINSt3__112basic_stringIcNS0_11char_traitsIcEENS0_9allocatorIcEEEEE10push_frontES6_, symObjAddr: 0x6244, symBinAddr: 0x100006D0C, symSize: 0xE4 }
  - { offsetInCU: 0x20822, offset: 0x20822, size: 0x8, addend: 0x0, symName: __ZNSt3__112basic_stringIcNS_11char_traitsIcEENS_9allocatorIcEEEC1B8ue170006ILi0EEEPKc, symObjAddr: 0x6328, symBinAddr: 0x100006DF0, symSize: 0x34 }
  - { offsetInCU: 0x20861, offset: 0x20861, size: 0x8, addend: 0x0, symName: __ZN5DequeINSt3__112basic_stringIcNS0_11char_traitsIcEENS0_9allocatorIcEEEEE5emptyEv, symObjAddr: 0x635C, symBinAddr: 0x100006E24, symSize: 0x24 }
  - { offsetInCU: 0x20887, offset: 0x20887, size: 0x8, addend: 0x0, symName: __ZN5DequeINSt3__112basic_stringIcNS0_11char_traitsIcEENS0_9allocatorIcEEEEE9pop_frontEv, symObjAddr: 0x6380, symBinAddr: 0x100006E48, symSize: 0xC8 }
  - { offsetInCU: 0x20AF6, offset: 0x20AF6, size: 0x8, addend: 0x0, symName: __ZN5DequeIiEC1Ev, symObjAddr: 0x6448, symBinAddr: 0x100006F10, symSize: 0x2C }
  - { offsetInCU: 0x20B20, offset: 0x20B20, size: 0x8, addend: 0x0, symName: __ZN5DequeIiE10push_frontEi, symObjAddr: 0x6474, symBinAddr: 0x100006F3C, symSize: 0x94 }
  - { offsetInCU: 0x20B54, offset: 0x20B54, size: 0x8, addend: 0x0, symName: __ZN5DequeIiE5emptyEv, symObjAddr: 0x6508, symBinAddr: 0x100006FD0, symSize: 0x24 }
  - { offsetInCU: 0x20B7A, offset: 0x20B7A, size: 0x8, addend: 0x0, symName: __ZN5DequeIiE9pop_frontEv, symObjAddr: 0x652C, symBinAddr: 0x100006FF4, symSize: 0x5C }
  - { offsetInCU: 0x20EEB, offset: 0x20EEB, size: 0x8, addend: 0x0, symName: __ZN5DequeI4CardEC1Ev, symObjAddr: 0x6588, symBinAddr: 0x100007050, symSize: 0x2C }
  - { offsetInCU: 0x20F15, offset: 0x20F15, size: 0x8, addend: 0x0, symName: __ZN5DequeI4CardE10push_frontES0_, symObjAddr: 0x65B4, symBinAddr: 0x10000707C, symSize: 0xC0 }
  - { offsetInCU: 0x20F4A, offset: 0x20F4A, size: 0x8, addend: 0x0, symName: __ZN5DequeI4CardE5emptyEv, symObjAddr: 0x6674, symBinAddr: 0x10000713C, symSize: 0x24 }
  - { offsetInCU: 0x20F70, offset: 0x20F70, size: 0x8, addend: 0x0, symName: __ZN5DequeI4CardE9pop_frontEv, symObjAddr: 0x6698, symBinAddr: 0x100007160, symSize: 0x88 }
  - { offsetInCU: 0x20FA5, offset: 0x20FA5, size: 0x8, addend: 0x0, symName: __ZN5DequeIiEC1Em, symObjAddr: 0x6720, symBinAddr: 0x1000071E8, symSize: 0x34 }
  - { offsetInCU: 0x20FDD, offset: 0x20FDD, size: 0x8, addend: 0x0, symName: __ZN5DequeIiE4fullEv, symObjAddr: 0x6754, symBinAddr: 0x10000721C, symSize: 0x28 }
  - { offsetInCU: 0x21003, offset: 0x21003, size: 0x8, addend: 0x0, symName: __ZN5DequeIiE11getCapacityEv, symObjAddr: 0x677C, symBinAddr: 0x100007244, symSize: 0x18 }
  - { offsetInCU: 0x21029, offset: 0x21029, size: 0x8, addend: 0x0, symName: __ZN5DequeIiEixEi, symObjAddr: 0x6794, symBinAddr: 0x10000725C, symSize: 0x24 }
  - { offsetInCU: 0x2105D, offset: 0x2105D, size: 0x8, addend: 0x0, symName: __ZN5DequeIiE9push_backEi, symObjAddr: 0x67B8, symBinAddr: 0x100007280, symSize: 0x9C }
  - { offsetInCU: 0x21091, offset: 0x21091, size: 0x8, addend: 0x0, symName: __ZN5DequeIiE10show_frontEv, symObjAddr: 0x6854, symBinAddr: 0x10000731C, symSize: 0x24 }
  - { offsetInCU: 0x210B7, offset: 0x210B7, size: 0x8, addend: 0x0, symName: __ZN5DequeIiE9show_backEv, symObjAddr: 0x6878, symBinAddr: 0x100007340, symSize: 0x24 }
  - { offsetInCU: 0x210DD, offset: 0x210DD, size: 0x8, addend: 0x0, symName: __ZN5DequeIiE8pop_backEv, symObjAddr: 0x689C, symBinAddr: 0x100007364, symSize: 0x50 }
  - { offsetInCU: 0x21111, offset: 0x21111, size: 0x8, addend: 0x0, symName: __ZN5DequeIiE9show_headEv, symObjAddr: 0x68EC, symBinAddr: 0x1000073B4, symSize: 0x20 }
  - { offsetInCU: 0x21137, offset: 0x21137, size: 0x8, addend: 0x0, symName: __ZN5DequeIiE11remove_headEv, symObjAddr: 0x690C, symBinAddr: 0x1000073D4, symSize: 0x3C }
  - { offsetInCU: 0x2115D, offset: 0x2115D, size: 0x8, addend: 0x0, symName: __ZN5DequeIiE9show_tailEv, symObjAddr: 0x6948, symBinAddr: 0x100007410, symSize: 0x20 }
  - { offsetInCU: 0x21183, offset: 0x21183, size: 0x8, addend: 0x0, symName: __ZN5DequeIiE10array_sizeEv, symObjAddr: 0x6968, symBinAddr: 0x100007430, symSize: 0x18 }
  - { offsetInCU: 0x211A9, offset: 0x211A9, size: 0x8, addend: 0x0, symName: __ZN5DequeIiEC1EPim, symObjAddr: 0x6980, symBinAddr: 0x100007448, symSize: 0x3C }
  - { offsetInCU: 0x212F7, offset: 0x212F7, size: 0x8, addend: 0x0, symName: __ZN5StackINSt3__112basic_stringIcNS0_11char_traitsIcEENS0_9allocatorIcEEEEEC1Em, symObjAddr: 0x69BC, symBinAddr: 0x100007484, symSize: 0x34 }
  - { offsetInCU: 0x2132F, offset: 0x2132F, size: 0x8, addend: 0x0, symName: __ZN5StackINSt3__112basic_stringIcNS0_11char_traitsIcEENS0_9allocatorIcEEEEE4pushES6_, symObjAddr: 0x69F0, symBinAddr: 0x1000074B8, symSize: 0x70 }
  - { offsetInCU: 0x21364, offset: 0x21364, size: 0x8, addend: 0x0, symName: __ZN5StackINSt3__112basic_stringIcNS0_11char_traitsIcEENS0_9allocatorIcEEEEE14stack_capacityEv, symObjAddr: 0x6A60, symBinAddr: 0x100007528, symSize: 0x24 }
  - { offsetInCU: 0x2138A, offset: 0x2138A, size: 0x8, addend: 0x0, symName: __ZN5StackINSt3__112basic_stringIcNS0_11char_traitsIcEENS0_9allocatorIcEEEEEixEi, symObjAddr: 0x6A84, symBinAddr: 0x10000754C, symSize: 0x38 }
  - { offsetInCU: 0x213BE, offset: 0x213BE, size: 0x8, addend: 0x0, symName: __ZN5StackINSt3__112basic_stringIcNS0_11char_traitsIcEENS0_9allocatorIcEEEEE4peekEv, symObjAddr: 0x6ABC, symBinAddr: 0x100007584, symSize: 0x2C }
  - { offsetInCU: 0x213E4, offset: 0x213E4, size: 0x8, addend: 0x0, symName: __ZN5StackINSt3__112basic_stringIcNS0_11char_traitsIcEENS0_9allocatorIcEEEEE3popEv, symObjAddr: 0x6AE8, symBinAddr: 0x1000075B0, symSize: 0x2C }
  - { offsetInCU: 0x2140A, offset: 0x2140A, size: 0x8, addend: 0x0, symName: __ZN5StackINSt3__112basic_stringIcNS0_11char_traitsIcEENS0_9allocatorIcEEEEE10stack_sizeEv, symObjAddr: 0x6B14, symBinAddr: 0x1000075DC, symSize: 0x24 }
  - { offsetInCU: 0x2154E, offset: 0x2154E, size: 0x8, addend: 0x0, symName: __ZN5QueueIiEC1Em, symObjAddr: 0x6B38, symBinAddr: 0x100007600, symSize: 0x34 }
  - { offsetInCU: 0x21586, offset: 0x21586, size: 0x8, addend: 0x0, symName: __ZN5QueueIiE14queue_capacityEv, symObjAddr: 0x6B6C, symBinAddr: 0x100007634, symSize: 0x24 }
  - { offsetInCU: 0x215AC, offset: 0x215AC, size: 0x8, addend: 0x0, symName: __ZN5QueueIiEixEi, symObjAddr: 0x6B90, symBinAddr: 0x100007658, symSize: 0x30 }
  - { offsetInCU: 0x215E0, offset: 0x215E0, size: 0x8, addend: 0x0, symName: __ZN5QueueIiE10queue_sizeEv, symObjAddr: 0x6BC0, symBinAddr: 0x100007688, symSize: 0x24 }
  - { offsetInCU: 0x21606, offset: 0x21606, size: 0x8, addend: 0x0, symName: __ZN5QueueIiE7enqueueEi, symObjAddr: 0x6BE4, symBinAddr: 0x1000076AC, symSize: 0x2C }
  - { offsetInCU: 0x2163A, offset: 0x2163A, size: 0x8, addend: 0x0, symName: __ZN5QueueIiE7dequeueEv, symObjAddr: 0x6C10, symBinAddr: 0x1000076D8, symSize: 0x24 }
  - { offsetInCU: 0x21660, offset: 0x21660, size: 0x8, addend: 0x0, symName: __ZN5QueueIiED1Ev, symObjAddr: 0x6C34, symBinAddr: 0x1000076FC, symSize: 0x2C }
  - { offsetInCU: 0x2168C, offset: 0x2168C, size: 0x8, addend: 0x0, symName: __ZN5StackINSt3__112basic_stringIcNS0_11char_traitsIcEENS0_9allocatorIcEEEEED1Ev, symObjAddr: 0x6C60, symBinAddr: 0x100007728, symSize: 0x2C }
  - { offsetInCU: 0x216B8, offset: 0x216B8, size: 0x8, addend: 0x0, symName: __ZN5DequeIiED1Ev, symObjAddr: 0x6C8C, symBinAddr: 0x100007754, symSize: 0x2C }
  - { offsetInCU: 0x216E2, offset: 0x216E2, size: 0x8, addend: 0x0, symName: __ZN5DequeI4CardED1Ev, symObjAddr: 0x6CB8, symBinAddr: 0x100007780, symSize: 0x2C }
  - { offsetInCU: 0x2170C, offset: 0x2170C, size: 0x8, addend: 0x0, symName: __ZN5DequeINSt3__112basic_stringIcNS0_11char_traitsIcEENS0_9allocatorIcEEEEED1Ev, symObjAddr: 0x6CE4, symBinAddr: 0x1000077AC, symSize: 0x2C }
  - { offsetInCU: 0x21736, offset: 0x21736, size: 0x8, addend: 0x0, symName: __ZNSt3__14pairIKccEC2B8ue170006IccLPv0EEEOT_OT0_, symObjAddr: 0x6D10, symBinAddr: 0x1000077D8, symSize: 0x34 }
  - { offsetInCU: 0x21794, offset: 0x21794, size: 0x8, addend: 0x0, symName: __ZN5StackIcEC2Ev, symObjAddr: 0x6D44, symBinAddr: 0x10000780C, symSize: 0x2C }
  - { offsetInCU: 0x217BE, offset: 0x217BE, size: 0x8, addend: 0x0, symName: __ZN5DequeIcEC1Ev, symObjAddr: 0x6D70, symBinAddr: 0x100007838, symSize: 0x2C }
  - { offsetInCU: 0x217E8, offset: 0x217E8, size: 0x8, addend: 0x0, symName: __ZN5DequeIcEC2Ev, symObjAddr: 0x6D9C, symBinAddr: 0x100007864, symSize: 0x68 }
  - { offsetInCU: 0x21812, offset: 0x21812, size: 0x8, addend: 0x0, symName: __ZNKSt3__111__wrap_iterIPKcE4baseB8ue170006Ev, symObjAddr: 0x6E4C, symBinAddr: 0x100007914, symSize: 0x18 }
  - { offsetInCU: 0x21838, offset: 0x21838, size: 0x8, addend: 0x0, symName: __ZNKSt3__111__wrap_iterIPcE4baseB8ue170006Ev, symObjAddr: 0x6EAC, symBinAddr: 0x100007974, symSize: 0x18 }
  - { offsetInCU: 0x2185E, offset: 0x2185E, size: 0x8, addend: 0x0, symName: __ZN5StackIcED2Ev, symObjAddr: 0x6EC4, symBinAddr: 0x10000798C, symSize: 0x2C }
  - { offsetInCU: 0x2188A, offset: 0x2188A, size: 0x8, addend: 0x0, symName: __ZN5DequeIcED1Ev, symObjAddr: 0x6EF0, symBinAddr: 0x1000079B8, symSize: 0x2C }
  - { offsetInCU: 0x218B4, offset: 0x218B4, size: 0x8, addend: 0x0, symName: __ZN5DequeIcED2Ev, symObjAddr: 0x6F1C, symBinAddr: 0x1000079E4, symSize: 0x50 }
  - { offsetInCU: 0x218DE, offset: 0x218DE, size: 0x8, addend: 0x0, symName: __ZNSt16invalid_argumentC2B8ue170006EPKc, symObjAddr: 0x6F6C, symBinAddr: 0x100007A34, symSize: 0x4C }
  - { offsetInCU: 0x21916, offset: 0x21916, size: 0x8, addend: 0x0, symName: __ZN5QueueI4TaskEC2Ev, symObjAddr: 0x6FB8, symBinAddr: 0x100007A80, symSize: 0x2C }
  - { offsetInCU: 0x21940, offset: 0x21940, size: 0x8, addend: 0x0, symName: __ZN5DequeI4TaskEC1Ev, symObjAddr: 0x6FE4, symBinAddr: 0x100007AAC, symSize: 0x2C }
  - { offsetInCU: 0x2196A, offset: 0x2196A, size: 0x8, addend: 0x0, symName: __ZN5DequeI4TaskEC2Ev, symObjAddr: 0x7010, symBinAddr: 0x100007AD8, symSize: 0x188 }
  - { offsetInCU: 0x21994, offset: 0x21994, size: 0x8, addend: 0x0, symName: __ZN4TaskC2ERKS_, symObjAddr: 0x7198, symBinAddr: 0x100007C60, symSize: 0x94 }
  - { offsetInCU: 0x219C9, offset: 0x219C9, size: 0x8, addend: 0x0, symName: __ZN4TaskD2Ev, symObjAddr: 0x722C, symBinAddr: 0x100007CF4, symSize: 0x3C }
  - { offsetInCU: 0x219F5, offset: 0x219F5, size: 0x8, addend: 0x0, symName: __ZNSt3__16chrono8durationIxNS_5ratioILl1ELl1000EEEEC2B8ue170006IiEERKT_PNS_9enable_ifIXaasr14is_convertibleIS8_xEE5valueooL_ZNS_17integral_constantIbLb0EE5valueEEntsr23treat_as_floating_pointIS6_EE5valueEvE4typeE, symObjAddr: 0x7268, symBinAddr: 0x100007D30, symSize: 0x28 }
  - { offsetInCU: 0x21A41, offset: 0x21A41, size: 0x8, addend: 0x0, symName: __ZNSt3__113basic_fstreamIcNS_11char_traitsIcEEED2Ev, symObjAddr: 0x7290, symBinAddr: 0x100007D58, symSize: 0x6C }
  - { offsetInCU: 0x21A7A, offset: 0x21A7A, size: 0x8, addend: 0x0, symName: __ZThn16_NSt3__113basic_fstreamIcNS_11char_traitsIcEEED1Ev, symObjAddr: 0x72FC, symBinAddr: 0x100007DC4, symSize: 0x1C }
  - { offsetInCU: 0x21A90, offset: 0x21A90, size: 0x8, addend: 0x0, symName: __ZTv0_n24_NSt3__113basic_fstreamIcNS_11char_traitsIcEEED1Ev, symObjAddr: 0x7318, symBinAddr: 0x100007DE0, symSize: 0x28 }
  - { offsetInCU: 0x21AA6, offset: 0x21AA6, size: 0x8, addend: 0x0, symName: __ZNSt3__113basic_fstreamIcNS_11char_traitsIcEEED0Ev, symObjAddr: 0x7340, symBinAddr: 0x100007E08, symSize: 0x30 }
  - { offsetInCU: 0x21AD2, offset: 0x21AD2, size: 0x8, addend: 0x0, symName: __ZThn16_NSt3__113basic_fstreamIcNS_11char_traitsIcEEED0Ev, symObjAddr: 0x7370, symBinAddr: 0x100007E38, symSize: 0x18 }
  - { offsetInCU: 0x21AE8, offset: 0x21AE8, size: 0x8, addend: 0x0, symName: __ZTv0_n24_NSt3__113basic_fstreamIcNS_11char_traitsIcEEED0Ev, symObjAddr: 0x7388, symBinAddr: 0x100007E50, symSize: 0x20 }
  - { offsetInCU: 0x21AFE, offset: 0x21AFE, size: 0x8, addend: 0x0, symName: __ZN5QueueI4TaskED2Ev, symObjAddr: 0x73A8, symBinAddr: 0x100007E70, symSize: 0x2C }
  - { offsetInCU: 0x21B2A, offset: 0x21B2A, size: 0x8, addend: 0x0, symName: __ZN5DequeI4TaskED1Ev, symObjAddr: 0x73D4, symBinAddr: 0x100007E9C, symSize: 0x2C }
  - { offsetInCU: 0x21B54, offset: 0x21B54, size: 0x8, addend: 0x0, symName: __ZN5DequeI4TaskED2Ev, symObjAddr: 0x7400, symBinAddr: 0x100007EC8, symSize: 0xA8 }
  - { offsetInCU: 0x21B7E, offset: 0x21B7E, size: 0x8, addend: 0x0, symName: __ZN5QueueIiED2Ev, symObjAddr: 0x74A8, symBinAddr: 0x100007F70, symSize: 0x2C }
  - { offsetInCU: 0x21BAA, offset: 0x21BAA, size: 0x8, addend: 0x0, symName: __ZN5StackINSt3__112basic_stringIcNS0_11char_traitsIcEENS0_9allocatorIcEEEEED2Ev, symObjAddr: 0x74D4, symBinAddr: 0x100007F9C, symSize: 0x2C }
  - { offsetInCU: 0x21BD6, offset: 0x21BD6, size: 0x8, addend: 0x0, symName: __ZNSt3__113unordered_mapIccNS_4hashIcEENS_8equal_toIcEENS_9allocatorINS_4pairIKccEEEEEC2ESt16initializer_listIS8_E, symObjAddr: 0x7500, symBinAddr: 0x100007FC8, symSize: 0x8C }
  - { offsetInCU: 0x21C11, offset: 0x21C11, size: 0x8, addend: 0x0, symName: __ZNSt3__112__hash_tableINS_17__hash_value_typeIccEENS_22__unordered_map_hasherIcS2_NS_4hashIcEENS_8equal_toIcEELb1EEENS_21__unordered_map_equalIcS2_S7_S5_Lb1EEENS_9allocatorIS2_EEEC1Ev, symObjAddr: 0x758C, symBinAddr: 0x100008054, symSize: 0x2C }
  - { offsetInCU: 0x21C3D, offset: 0x21C3D, size: 0x8, addend: 0x0, symName: __ZNSt3__113unordered_mapIccNS_4hashIcEENS_8equal_toIcEENS_9allocatorINS_4pairIKccEEEEE6insertIPKS8_EEvT_SE_, symObjAddr: 0x75B8, symBinAddr: 0x100008080, symSize: 0x70 }
  - { offsetInCU: 0x21C8C, offset: 0x21C8C, size: 0x8, addend: 0x0, symName: __ZNKSt16initializer_listINSt3__14pairIKccEEE5beginB8ue170006Ev, symObjAddr: 0x7628, symBinAddr: 0x1000080F0, symSize: 0x18 }
  - { offsetInCU: 0x21CB2, offset: 0x21CB2, size: 0x8, addend: 0x0, symName: __ZNKSt16initializer_listINSt3__14pairIKccEEE3endB8ue170006Ev, symObjAddr: 0x7640, symBinAddr: 0x100008108, symSize: 0x20 }
  - { offsetInCU: 0x21CD8, offset: 0x21CD8, size: 0x8, addend: 0x0, symName: __ZNSt3__112__hash_tableINS_17__hash_value_typeIccEENS_22__unordered_map_hasherIcS2_NS_4hashIcEENS_8equal_toIcEELb1EEENS_21__unordered_map_equalIcS2_S7_S5_Lb1EEENS_9allocatorIS2_EEED1Ev, symObjAddr: 0x7660, symBinAddr: 0x100008128, symSize: 0x2C }
  - { offsetInCU: 0x21D04, offset: 0x21D04, size: 0x8, addend: 0x0, symName: __ZNSt3__112__hash_tableINS_17__hash_value_typeIccEENS_22__unordered_map_hasherIcS2_NS_4hashIcEENS_8equal_toIcEELb1EEENS_21__unordered_map_equalIcS2_S7_S5_Lb1EEENS_9allocatorIS2_EEEC2Ev, symObjAddr: 0x768C, symBinAddr: 0x100008154, symSize: 0x7C }
  - { offsetInCU: 0x21D30, offset: 0x21D30, size: 0x8, addend: 0x0, symName: __ZNSt3__110unique_ptrIA_PNS_16__hash_node_baseIPNS_11__hash_nodeINS_17__hash_value_typeIccEEPvEEEENS_25__bucket_list_deallocatorINS_9allocatorIS9_EEEEEC1B8ue170006ILb1EvEEv, symObjAddr: 0x7708, symBinAddr: 0x1000081D0, symSize: 0x2C }
  - { offsetInCU: 0x21D65, offset: 0x21D65, size: 0x8, addend: 0x0, symName: __ZNSt3__117__compressed_pairINS_16__hash_node_baseIPNS_11__hash_nodeINS_17__hash_value_typeIccEEPvEEEENS_9allocatorIS6_EEEC1B8ue170006ILb1EvEEv, symObjAddr: 0x7734, symBinAddr: 0x1000081FC, symSize: 0x2C }
  - { offsetInCU: 0x21DA6, offset: 0x21DA6, size: 0x8, addend: 0x0, symName: __ZNSt3__117__compressed_pairImNS_22__unordered_map_hasherIcNS_17__hash_value_typeIccEENS_4hashIcEENS_8equal_toIcEELb1EEEEC1B8ue170006IiNS_18__default_init_tagEEEOT_OT0_, symObjAddr: 0x776C, symBinAddr: 0x100008234, symSize: 0x3C }
  - { offsetInCU: 0x21E04, offset: 0x21E04, size: 0x8, addend: 0x0, symName: __ZNSt3__117__compressed_pairIfNS_21__unordered_map_equalIcNS_17__hash_value_typeIccEENS_8equal_toIcEENS_4hashIcEELb1EEEEC1B8ue170006IfNS_18__default_init_tagEEEOT_OT0_, symObjAddr: 0x77A8, symBinAddr: 0x100008270, symSize: 0x3C }
  - { offsetInCU: 0x21E5C, offset: 0x21E5C, size: 0x8, addend: 0x0, symName: __ZNSt3__110unique_ptrIA_PNS_16__hash_node_baseIPNS_11__hash_nodeINS_17__hash_value_typeIccEEPvEEEENS_25__bucket_list_deallocatorINS_9allocatorIS9_EEEEEC2B8ue170006ILb1EvEEv, symObjAddr: 0x77E4, symBinAddr: 0x1000082AC, symSize: 0x3C }
  - { offsetInCU: 0x21E97, offset: 0x21E97, size: 0x8, addend: 0x0, symName: __ZNSt3__117__compressed_pairIPPNS_16__hash_node_baseIPNS_11__hash_nodeINS_17__hash_value_typeIccEEPvEEEENS_25__bucket_list_deallocatorINS_9allocatorIS9_EEEEEC1B8ue170006INS_16__value_init_tagESH_EEOT_OT0_, symObjAddr: 0x7820, symBinAddr: 0x1000082E8, symSize: 0x3C }
  - { offsetInCU: 0x21EEF, offset: 0x21EEF, size: 0x8, addend: 0x0, symName: __ZNSt3__117__compressed_pairIPPNS_16__hash_node_baseIPNS_11__hash_nodeINS_17__hash_value_typeIccEEPvEEEENS_25__bucket_list_deallocatorINS_9allocatorIS9_EEEEEC2B8ue170006INS_16__value_init_tagESH_EEOT_OT0_, symObjAddr: 0x785C, symBinAddr: 0x100008324, symSize: 0x40 }
  - { offsetInCU: 0x21F47, offset: 0x21F47, size: 0x8, addend: 0x0, symName: __ZNSt3__122__compressed_pair_elemIPPNS_16__hash_node_baseIPNS_11__hash_nodeINS_17__hash_value_typeIccEEPvEEEELi0ELb0EEC2B8ue170006ENS_16__value_init_tagE, symObjAddr: 0x789C, symBinAddr: 0x100008364, symSize: 0x18 }
  - { offsetInCU: 0x21F7B, offset: 0x21F7B, size: 0x8, addend: 0x0, symName: __ZNSt3__122__compressed_pair_elemINS_25__bucket_list_deallocatorINS_9allocatorIPNS_16__hash_node_baseIPNS_11__hash_nodeINS_17__hash_value_typeIccEEPvEEEEEEEELi1ELb0EEC2B8ue170006ENS_16__value_init_tagE, symObjAddr: 0x78B4, symBinAddr: 0x10000837C, symSize: 0x2C }
  - { offsetInCU: 0x21FAF, offset: 0x21FAF, size: 0x8, addend: 0x0, symName: __ZNSt3__125__bucket_list_deallocatorINS_9allocatorIPNS_16__hash_node_baseIPNS_11__hash_nodeINS_17__hash_value_typeIccEEPvEEEEEEEC1B8ue170006Ev, symObjAddr: 0x78E0, symBinAddr: 0x1000083A8, symSize: 0x2C }
  - { offsetInCU: 0x21FD9, offset: 0x21FD9, size: 0x8, addend: 0x0, symName: __ZNSt3__125__bucket_list_deallocatorINS_9allocatorIPNS_16__hash_node_baseIPNS_11__hash_nodeINS_17__hash_value_typeIccEEPvEEEEEEEC2B8ue170006Ev, symObjAddr: 0x790C, symBinAddr: 0x1000083D4, symSize: 0x40 }
  - { offsetInCU: 0x22003, offset: 0x22003, size: 0x8, addend: 0x0, symName: __ZNSt3__117__compressed_pairImNS_9allocatorIPNS_16__hash_node_baseIPNS_11__hash_nodeINS_17__hash_value_typeIccEEPvEEEEEEEC1B8ue170006IiNS_18__default_init_tagEEEOT_OT0_, symObjAddr: 0x794C, symBinAddr: 0x100008414, symSize: 0x3C }
  - { offsetInCU: 0x2205B, offset: 0x2205B, size: 0x8, addend: 0x0, symName: __ZNSt3__117__compressed_pairImNS_9allocatorIPNS_16__hash_node_baseIPNS_11__hash_nodeINS_17__hash_value_typeIccEEPvEEEEEEEC2B8ue170006IiNS_18__default_init_tagEEEOT_OT0_, symObjAddr: 0x7988, symBinAddr: 0x100008450, symSize: 0x40 }
  - { offsetInCU: 0x220B3, offset: 0x220B3, size: 0x8, addend: 0x0, symName: __ZNSt3__122__compressed_pair_elemImLi0ELb0EEC2B8ue170006IivEEOT_, symObjAddr: 0x79C8, symBinAddr: 0x100008490, symSize: 0x24 }
  - { offsetInCU: 0x220F5, offset: 0x220F5, size: 0x8, addend: 0x0, symName: __ZNSt3__122__compressed_pair_elemINS_9allocatorIPNS_16__hash_node_baseIPNS_11__hash_nodeINS_17__hash_value_typeIccEEPvEEEEEELi1ELb1EEC2B8ue170006ENS_18__default_init_tagE, symObjAddr: 0x79EC, symBinAddr: 0x1000084B4, symSize: 0x2C }
  - { offsetInCU: 0x22129, offset: 0x22129, size: 0x8, addend: 0x0, symName: __ZNSt3__19allocatorIPNS_16__hash_node_baseIPNS_11__hash_nodeINS_17__hash_value_typeIccEEPvEEEEEC2B8ue170006Ev, symObjAddr: 0x7A18, symBinAddr: 0x1000084E0, symSize: 0x2C }
  - { offsetInCU: 0x22153, offset: 0x22153, size: 0x8, addend: 0x0, symName: __ZNSt3__116__non_trivial_ifILb1ENS_9allocatorIPNS_16__hash_node_baseIPNS_11__hash_nodeINS_17__hash_value_typeIccEEPvEEEEEEEC2B8ue170006Ev, symObjAddr: 0x7A44, symBinAddr: 0x10000850C, symSize: 0x14 }
  - { offsetInCU: 0x2217D, offset: 0x2217D, size: 0x8, addend: 0x0, symName: __ZNSt3__117__compressed_pairINS_16__hash_node_baseIPNS_11__hash_nodeINS_17__hash_value_typeIccEEPvEEEENS_9allocatorIS6_EEEC2B8ue170006ILb1EvEEv, symObjAddr: 0x7A58, symBinAddr: 0x100008520, symSize: 0x34 }
  - { offsetInCU: 0x221B2, offset: 0x221B2, size: 0x8, addend: 0x0, symName: __ZNSt3__122__compressed_pair_elemINS_16__hash_node_baseIPNS_11__hash_nodeINS_17__hash_value_typeIccEEPvEEEELi0ELb0EEC2B8ue170006ENS_16__value_init_tagE, symObjAddr: 0x7A8C, symBinAddr: 0x100008554, symSize: 0x2C }
  - { offsetInCU: 0x221E6, offset: 0x221E6, size: 0x8, addend: 0x0, symName: __ZNSt3__122__compressed_pair_elemINS_9allocatorINS_11__hash_nodeINS_17__hash_value_typeIccEEPvEEEELi1ELb1EEC2B8ue170006ENS_16__value_init_tagE, symObjAddr: 0x7AB8, symBinAddr: 0x100008580, symSize: 0x2C }
  - { offsetInCU: 0x2221A, offset: 0x2221A, size: 0x8, addend: 0x0, symName: __ZNSt3__116__hash_node_baseIPNS_11__hash_nodeINS_17__hash_value_typeIccEEPvEEEC1B8ue170006Ev, symObjAddr: 0x7AE4, symBinAddr: 0x1000085AC, symSize: 0x2C }
  - { offsetInCU: 0x22244, offset: 0x22244, size: 0x8, addend: 0x0, symName: __ZNSt3__116__hash_node_baseIPNS_11__hash_nodeINS_17__hash_value_typeIccEEPvEEEC2B8ue170006Ev, symObjAddr: 0x7B10, symBinAddr: 0x1000085D8, symSize: 0x18 }
  - { offsetInCU: 0x2226E, offset: 0x2226E, size: 0x8, addend: 0x0, symName: __ZNSt3__19allocatorINS_11__hash_nodeINS_17__hash_value_typeIccEEPvEEEC2B8ue170006Ev, symObjAddr: 0x7B28, symBinAddr: 0x1000085F0, symSize: 0x2C }
  - { offsetInCU: 0x22298, offset: 0x22298, size: 0x8, addend: 0x0, symName: __ZNSt3__116__non_trivial_ifILb1ENS_9allocatorINS_11__hash_nodeINS_17__hash_value_typeIccEEPvEEEEEC2B8ue170006Ev, symObjAddr: 0x7B54, symBinAddr: 0x10000861C, symSize: 0x14 }
  - { offsetInCU: 0x222C2, offset: 0x222C2, size: 0x8, addend: 0x0, symName: __ZNSt3__117__compressed_pairImNS_22__unordered_map_hasherIcNS_17__hash_value_typeIccEENS_4hashIcEENS_8equal_toIcEELb1EEEEC2B8ue170006IiNS_18__default_init_tagEEEOT_OT0_, symObjAddr: 0x7B68, symBinAddr: 0x100008630, symSize: 0x40 }
  - { offsetInCU: 0x2231A, offset: 0x2231A, size: 0x8, addend: 0x0, symName: __ZNSt3__122__compressed_pair_elemINS_22__unordered_map_hasherIcNS_17__hash_value_typeIccEENS_4hashIcEENS_8equal_toIcEELb1EEELi1ELb1EEC2B8ue170006ENS_18__default_init_tagE, symObjAddr: 0x7BA8, symBinAddr: 0x100008670, symSize: 0x2C }
  - { offsetInCU: 0x2234E, offset: 0x2234E, size: 0x8, addend: 0x0, symName: __ZNSt3__122__unordered_map_hasherIcNS_17__hash_value_typeIccEENS_4hashIcEENS_8equal_toIcEELb1EEC2B8ue170006Ev, symObjAddr: 0x7BD4, symBinAddr: 0x10000869C, symSize: 0x14 }
  - { offsetInCU: 0x22378, offset: 0x22378, size: 0x8, addend: 0x0, symName: __ZNSt3__117__compressed_pairIfNS_21__unordered_map_equalIcNS_17__hash_value_typeIccEENS_8equal_toIcEENS_4hashIcEELb1EEEEC2B8ue170006IfNS_18__default_init_tagEEEOT_OT0_, symObjAddr: 0x7BE8, symBinAddr: 0x1000086B0, symSize: 0x40 }
  - { offsetInCU: 0x223D0, offset: 0x223D0, size: 0x8, addend: 0x0, symName: __ZNSt3__122__compressed_pair_elemIfLi0ELb0EEC2B8ue170006IfvEEOT_, symObjAddr: 0x7C28, symBinAddr: 0x1000086F0, symSize: 0x24 }
  - { offsetInCU: 0x22412, offset: 0x22412, size: 0x8, addend: 0x0, symName: __ZNSt3__122__compressed_pair_elemINS_21__unordered_map_equalIcNS_17__hash_value_typeIccEENS_8equal_toIcEENS_4hashIcEELb1EEELi1ELb1EEC2B8ue170006ENS_18__default_init_tagE, symObjAddr: 0x7C4C, symBinAddr: 0x100008714, symSize: 0x2C }
  - { offsetInCU: 0x22446, offset: 0x22446, size: 0x8, addend: 0x0, symName: __ZNSt3__121__unordered_map_equalIcNS_17__hash_value_typeIccEENS_8equal_toIcEENS_4hashIcEELb1EEC2B8ue170006Ev, symObjAddr: 0x7C78, symBinAddr: 0x100008740, symSize: 0x14 }
  - { offsetInCU: 0x22470, offset: 0x22470, size: 0x8, addend: 0x0, symName: __ZNSt3__112__hash_tableINS_17__hash_value_typeIccEENS_22__unordered_map_hasherIcS2_NS_4hashIcEENS_8equal_toIcEELb1EEENS_21__unordered_map_equalIcS2_S7_S5_Lb1EEENS_9allocatorIS2_EEE15__insert_uniqueB8ue170006ERKNS_4pairIKccEE, symObjAddr: 0x7C8C, symBinAddr: 0x100008754, symSize: 0x50 }
  - { offsetInCU: 0x224A5, offset: 0x224A5, size: 0x8, addend: 0x0, symName: __ZNSt3__112__hash_tableINS_17__hash_value_typeIccEENS_22__unordered_map_hasherIcS2_NS_4hashIcEENS_8equal_toIcEELb1EEENS_21__unordered_map_equalIcS2_S7_S5_Lb1EEENS_9allocatorIS2_EEE25__emplace_unique_key_argsIcJRKNS_4pairIKccEEEEENSF_INS_15__hash_iteratorIPNS_11__hash_nodeIS2_PvEEEEbEERKT_DpOT0_, symObjAddr: 0x7CDC, symBinAddr: 0x1000087A4, symSize: 0x4D8 }
  - { offsetInCU: 0x22585, offset: 0x22585, size: 0x8, addend: 0x0, symName: __ZNSt3__122__hash_key_value_typesINS_17__hash_value_typeIccEEE9__get_keyB8ue170006ERKNS_4pairIKccEE, symObjAddr: 0x81B4, symBinAddr: 0x100008C7C, symSize: 0x14 }
  - { offsetInCU: 0x225A8, offset: 0x225A8, size: 0x8, addend: 0x0, symName: __ZNSt3__112__hash_tableINS_17__hash_value_typeIccEENS_22__unordered_map_hasherIcS2_NS_4hashIcEENS_8equal_toIcEELb1EEENS_21__unordered_map_equalIcS2_S7_S5_Lb1EEENS_9allocatorIS2_EEE13hash_functionB8ue170006Ev, symObjAddr: 0x81C8, symBinAddr: 0x100008C90, symSize: 0x28 }
  - { offsetInCU: 0x225CE, offset: 0x225CE, size: 0x8, addend: 0x0, symName: __ZNKSt3__122__unordered_map_hasherIcNS_17__hash_value_typeIccEENS_4hashIcEENS_8equal_toIcEELb1EEclB8ue170006ERKc, symObjAddr: 0x81F0, symBinAddr: 0x100008CB8, symSize: 0x30 }
  - { offsetInCU: 0x22603, offset: 0x22603, size: 0x8, addend: 0x0, symName: __ZNKSt3__112__hash_tableINS_17__hash_value_typeIccEENS_22__unordered_map_hasherIcS2_NS_4hashIcEENS_8equal_toIcEELb1EEENS_21__unordered_map_equalIcS2_S7_S5_Lb1EEENS_9allocatorIS2_EEE12bucket_countB8ue170006Ev, symObjAddr: 0x8220, symBinAddr: 0x100008CE8, symSize: 0x28 }
  - { offsetInCU: 0x22629, offset: 0x22629, size: 0x8, addend: 0x0, symName: __ZNKSt3__110unique_ptrIA_PNS_16__hash_node_baseIPNS_11__hash_nodeINS_17__hash_value_typeIccEEPvEEEENS_25__bucket_list_deallocatorINS_9allocatorIS9_EEEEEixB8ue170006Em, symObjAddr: 0x82E0, symBinAddr: 0x100008DA8, symSize: 0x34 }
  - { offsetInCU: 0x2265E, offset: 0x2265E, size: 0x8, addend: 0x0, symName: __ZNKSt3__116__hash_node_baseIPNS_11__hash_nodeINS_17__hash_value_typeIccEEPvEEE6__hashB8ue170006Ev, symObjAddr: 0x8314, symBinAddr: 0x100008DDC, symSize: 0x18 }
  - { offsetInCU: 0x22684, offset: 0x22684, size: 0x8, addend: 0x0, symName: __ZNSt3__112__hash_tableINS_17__hash_value_typeIccEENS_22__unordered_map_hasherIcS2_NS_4hashIcEENS_8equal_toIcEELb1EEENS_21__unordered_map_equalIcS2_S7_S5_Lb1EEENS_9allocatorIS2_EEE6key_eqB8ue170006Ev, symObjAddr: 0x832C, symBinAddr: 0x100008DF4, symSize: 0x28 }
  - { offsetInCU: 0x226AA, offset: 0x226AA, size: 0x8, addend: 0x0, symName: __ZNKSt3__121__unordered_map_equalIcNS_17__hash_value_typeIccEENS_8equal_toIcEENS_4hashIcEELb1EEclB8ue170006ERKS2_RKc, symObjAddr: 0x8354, symBinAddr: 0x100008E1C, symSize: 0x48 }
  - { offsetInCU: 0x226EE, offset: 0x226EE, size: 0x8, addend: 0x0, symName: __ZNSt3__116__hash_node_baseIPNS_11__hash_nodeINS_17__hash_value_typeIccEEPvEEE8__upcastB8ue170006Ev, symObjAddr: 0x839C, symBinAddr: 0x100008E64, symSize: 0x24 }
  - { offsetInCU: 0x22714, offset: 0x22714, size: 0x8, addend: 0x0, symName: __ZNSt3__112__hash_tableINS_17__hash_value_typeIccEENS_22__unordered_map_hasherIcS2_NS_4hashIcEENS_8equal_toIcEELb1EEENS_21__unordered_map_equalIcS2_S7_S5_Lb1EEENS_9allocatorIS2_EEE21__construct_node_hashIRKNS_4pairIKccEEJEEENS_10unique_ptrINS_11__hash_nodeIS2_PvEENS_22__hash_node_destructorINSB_ISN_EEEEEEmOT_DpOT0_, symObjAddr: 0x83C0, symBinAddr: 0x100008E88, symSize: 0x140 }
  - { offsetInCU: 0x22787, offset: 0x22787, size: 0x8, addend: 0x0, symName: __ZNSt3__112__hash_tableINS_17__hash_value_typeIccEENS_22__unordered_map_hasherIcS2_NS_4hashIcEENS_8equal_toIcEELb1EEENS_21__unordered_map_equalIcS2_S7_S5_Lb1EEENS_9allocatorIS2_EEE4sizeB8ue170006Ev, symObjAddr: 0x8500, symBinAddr: 0x100008FC8, symSize: 0x28 }
  - { offsetInCU: 0x227AD, offset: 0x227AD, size: 0x8, addend: 0x0, symName: __ZNSt3__112__hash_tableINS_17__hash_value_typeIccEENS_22__unordered_map_hasherIcS2_NS_4hashIcEENS_8equal_toIcEELb1EEENS_21__unordered_map_equalIcS2_S7_S5_Lb1EEENS_9allocatorIS2_EEE15max_load_factorB8ue170006Ev, symObjAddr: 0x8528, symBinAddr: 0x100008FF0, symSize: 0x28 }
  - { offsetInCU: 0x227D3, offset: 0x227D3, size: 0x8, addend: 0x0, symName: __ZNSt3__112__hash_tableINS_17__hash_value_typeIccEENS_22__unordered_map_hasherIcS2_NS_4hashIcEENS_8equal_toIcEELb1EEENS_21__unordered_map_equalIcS2_S7_S5_Lb1EEENS_9allocatorIS2_EEE15__rehash_uniqueB8ue170006Em, symObjAddr: 0x8550, symBinAddr: 0x100009018, symSize: 0x2C }
  - { offsetInCU: 0x22807, offset: 0x22807, size: 0x8, addend: 0x0, symName: __Z4ceilB8ue170006f, symObjAddr: 0x85F8, symBinAddr: 0x1000090C0, symSize: 0x18 }
  - { offsetInCU: 0x22836, offset: 0x22836, size: 0x8, addend: 0x0, symName: __ZNSt3__117__compressed_pairINS_16__hash_node_baseIPNS_11__hash_nodeINS_17__hash_value_typeIccEEPvEEEENS_9allocatorIS6_EEE5firstB8ue170006Ev, symObjAddr: 0x8610, symBinAddr: 0x1000090D8, symSize: 0x24 }
  - { offsetInCU: 0x2285C, offset: 0x2285C, size: 0x8, addend: 0x0, symName: __ZNSt3__116__hash_node_baseIPNS_11__hash_nodeINS_17__hash_value_typeIccEEPvEEE5__ptrB8ue170006Ev, symObjAddr: 0x8634, symBinAddr: 0x1000090FC, symSize: 0x24 }
  - { offsetInCU: 0x22882, offset: 0x22882, size: 0x8, addend: 0x0, symName: __ZNKSt3__110unique_ptrINS_11__hash_nodeINS_17__hash_value_typeIccEEPvEENS_22__hash_node_destructorINS_9allocatorIS5_EEEEEptB8ue170006Ev, symObjAddr: 0x8658, symBinAddr: 0x100009120, symSize: 0x28 }
  - { offsetInCU: 0x228A8, offset: 0x228A8, size: 0x8, addend: 0x0, symName: __ZNKSt3__110unique_ptrINS_11__hash_nodeINS_17__hash_value_typeIccEEPvEENS_22__hash_node_destructorINS_9allocatorIS5_EEEEE3getB8ue170006Ev, symObjAddr: 0x8680, symBinAddr: 0x100009148, symSize: 0x28 }
  - { offsetInCU: 0x228CE, offset: 0x228CE, size: 0x8, addend: 0x0, symName: __ZNSt3__110unique_ptrINS_11__hash_nodeINS_17__hash_value_typeIccEEPvEENS_22__hash_node_destructorINS_9allocatorIS5_EEEEE7releaseB8ue170006Ev, symObjAddr: 0x86A8, symBinAddr: 0x100009170, symSize: 0x44 }
  - { offsetInCU: 0x22903, offset: 0x22903, size: 0x8, addend: 0x0, symName: __ZNSt3__110unique_ptrINS_11__hash_nodeINS_17__hash_value_typeIccEEPvEENS_22__hash_node_destructorINS_9allocatorIS5_EEEEED1B8ue170006Ev, symObjAddr: 0x86EC, symBinAddr: 0x1000091B4, symSize: 0x2C }
  - { offsetInCU: 0x2292D, offset: 0x2292D, size: 0x8, addend: 0x0, symName: __ZNSt3__115__hash_iteratorIPNS_11__hash_nodeINS_17__hash_value_typeIccEEPvEEEC1B8ue170006EPNS_16__hash_node_baseIS6_EE, symObjAddr: 0x8718, symBinAddr: 0x1000091E0, symSize: 0x34 }
  - { offsetInCU: 0x2296C, offset: 0x2296C, size: 0x8, addend: 0x0, symName: __ZNSt3__14pairINS_15__hash_iteratorIPNS_11__hash_nodeINS_17__hash_value_typeIccEEPvEEEEbEC1B8ue170006IS8_RbLS5_0EEEOT_OT0_, symObjAddr: 0x874C, symBinAddr: 0x100009214, symSize: 0x3C }
  - { offsetInCU: 0x229CA, offset: 0x229CA, size: 0x8, addend: 0x0, symName: __ZNSt3__117__compressed_pairImNS_22__unordered_map_hasherIcNS_17__hash_value_typeIccEENS_4hashIcEENS_8equal_toIcEELb1EEEE6secondB8ue170006Ev, symObjAddr: 0x8788, symBinAddr: 0x100009250, symSize: 0x24 }
  - { offsetInCU: 0x229F0, offset: 0x229F0, size: 0x8, addend: 0x0, symName: __ZNSt3__122__compressed_pair_elemINS_22__unordered_map_hasherIcNS_17__hash_value_typeIccEENS_4hashIcEENS_8equal_toIcEELb1EEELi1ELb1EE5__getB8ue170006Ev, symObjAddr: 0x87AC, symBinAddr: 0x100009274, symSize: 0x14 }
  - { offsetInCU: 0x22A16, offset: 0x22A16, size: 0x8, addend: 0x0, symName: __ZNKSt3__14hashIcEclB8ue170006Ec, symObjAddr: 0x87C0, symBinAddr: 0x100009288, symSize: 0x18 }
  - { offsetInCU: 0x22A4B, offset: 0x22A4B, size: 0x8, addend: 0x0, symName: __ZNKSt3__110unique_ptrIA_PNS_16__hash_node_baseIPNS_11__hash_nodeINS_17__hash_value_typeIccEEPvEEEENS_25__bucket_list_deallocatorINS_9allocatorIS9_EEEEE11get_deleterB8ue170006Ev, symObjAddr: 0x87D8, symBinAddr: 0x1000092A0, symSize: 0x24 }
  - { offsetInCU: 0x22A71, offset: 0x22A71, size: 0x8, addend: 0x0, symName: __ZNKSt3__125__bucket_list_deallocatorINS_9allocatorIPNS_16__hash_node_baseIPNS_11__hash_nodeINS_17__hash_value_typeIccEEPvEEEEEEE4sizeB8ue170006Ev, symObjAddr: 0x87FC, symBinAddr: 0x1000092C4, symSize: 0x28 }
  - { offsetInCU: 0x22A97, offset: 0x22A97, size: 0x8, addend: 0x0, symName: __ZNKSt3__117__compressed_pairIPPNS_16__hash_node_baseIPNS_11__hash_nodeINS_17__hash_value_typeIccEEPvEEEENS_25__bucket_list_deallocatorINS_9allocatorIS9_EEEEE6secondB8ue170006Ev, symObjAddr: 0x8824, symBinAddr: 0x1000092EC, symSize: 0x28 }
  - { offsetInCU: 0x22ABD, offset: 0x22ABD, size: 0x8, addend: 0x0, symName: __ZNKSt3__122__compressed_pair_elemINS_25__bucket_list_deallocatorINS_9allocatorIPNS_16__hash_node_baseIPNS_11__hash_nodeINS_17__hash_value_typeIccEEPvEEEEEEEELi1ELb0EE5__getB8ue170006Ev, symObjAddr: 0x884C, symBinAddr: 0x100009314, symSize: 0x14 }
  - { offsetInCU: 0x22AE3, offset: 0x22AE3, size: 0x8, addend: 0x0, symName: __ZNKSt3__117__compressed_pairImNS_9allocatorIPNS_16__hash_node_baseIPNS_11__hash_nodeINS_17__hash_value_typeIccEEPvEEEEEEE5firstB8ue170006Ev, symObjAddr: 0x8860, symBinAddr: 0x100009328, symSize: 0x24 }
  - { offsetInCU: 0x22B09, offset: 0x22B09, size: 0x8, addend: 0x0, symName: __ZNKSt3__122__compressed_pair_elemImLi0ELb0EE5__getB8ue170006Ev, symObjAddr: 0x8884, symBinAddr: 0x10000934C, symSize: 0x14 }
  - { offsetInCU: 0x22B2F, offset: 0x22B2F, size: 0x8, addend: 0x0, symName: __ZNKSt3__117__compressed_pairIPPNS_16__hash_node_baseIPNS_11__hash_nodeINS_17__hash_value_typeIccEEPvEEEENS_25__bucket_list_deallocatorINS_9allocatorIS9_EEEEE5firstB8ue170006Ev, symObjAddr: 0x8898, symBinAddr: 0x100009360, symSize: 0x24 }
  - { offsetInCU: 0x22B55, offset: 0x22B55, size: 0x8, addend: 0x0, symName: __ZNKSt3__122__compressed_pair_elemIPPNS_16__hash_node_baseIPNS_11__hash_nodeINS_17__hash_value_typeIccEEPvEEEELi0ELb0EE5__getB8ue170006Ev, symObjAddr: 0x88BC, symBinAddr: 0x100009384, symSize: 0x14 }
  - { offsetInCU: 0x22B7B, offset: 0x22B7B, size: 0x8, addend: 0x0, symName: __ZNSt3__117__compressed_pairIfNS_21__unordered_map_equalIcNS_17__hash_value_typeIccEENS_8equal_toIcEENS_4hashIcEELb1EEEE6secondB8ue170006Ev, symObjAddr: 0x88D0, symBinAddr: 0x100009398, symSize: 0x24 }
  - { offsetInCU: 0x22BA1, offset: 0x22BA1, size: 0x8, addend: 0x0, symName: __ZNSt3__122__compressed_pair_elemINS_21__unordered_map_equalIcNS_17__hash_value_typeIccEENS_8equal_toIcEENS_4hashIcEELb1EEELi1ELb1EE5__getB8ue170006Ev, symObjAddr: 0x88F4, symBinAddr: 0x1000093BC, symSize: 0x14 }
  - { offsetInCU: 0x22BC7, offset: 0x22BC7, size: 0x8, addend: 0x0, symName: __ZNKSt3__18equal_toIcEclB8ue170006ERKcS3_, symObjAddr: 0x8908, symBinAddr: 0x1000093D0, symSize: 0x34 }
  - { offsetInCU: 0x22C0B, offset: 0x22C0B, size: 0x8, addend: 0x0, symName: __ZNKSt3__117__hash_value_typeIccE11__get_valueB8ue170006Ev, symObjAddr: 0x893C, symBinAddr: 0x100009404, symSize: 0x24 }
  - { offsetInCU: 0x22C31, offset: 0x22C31, size: 0x8, addend: 0x0, symName: __ZNSt3__114pointer_traitsIPNS_16__hash_node_baseIPNS_11__hash_nodeINS_17__hash_value_typeIccEEPvEEEEE10pointer_toB8ue170006ERS8_, symObjAddr: 0x8998, symBinAddr: 0x100009460, symSize: 0x14 }
  - { offsetInCU: 0x22C54, offset: 0x22C54, size: 0x8, addend: 0x0, symName: __ZNSt3__112__hash_tableINS_17__hash_value_typeIccEENS_22__unordered_map_hasherIcS2_NS_4hashIcEENS_8equal_toIcEELb1EEENS_21__unordered_map_equalIcS2_S7_S5_Lb1EEENS_9allocatorIS2_EEE12__node_allocB8ue170006Ev, symObjAddr: 0x89AC, symBinAddr: 0x100009474, symSize: 0x28 }
  - { offsetInCU: 0x22C7A, offset: 0x22C7A, size: 0x8, addend: 0x0, symName: __ZNSt3__116allocator_traitsINS_9allocatorINS_11__hash_nodeINS_17__hash_value_typeIccEEPvEEEEE8allocateB8ue170006ERS7_m, symObjAddr: 0x89D4, symBinAddr: 0x10000949C, symSize: 0x2C }
  - { offsetInCU: 0x22CAD, offset: 0x22CAD, size: 0x8, addend: 0x0, symName: __ZNSt3__122__hash_node_destructorINS_9allocatorINS_11__hash_nodeINS_17__hash_value_typeIccEEPvEEEEEC1B8ue170006ERS7_b, symObjAddr: 0x8A00, symBinAddr: 0x1000094C8, symSize: 0x48 }
  - { offsetInCU: 0x22CFB, offset: 0x22CFB, size: 0x8, addend: 0x0, symName: __ZNSt3__110unique_ptrINS_11__hash_nodeINS_17__hash_value_typeIccEEPvEENS_22__hash_node_destructorINS_9allocatorIS5_EEEEEC1B8ue170006ILb1EvEEPS5_NS_16__dependent_typeINS_27__unique_ptr_deleter_sfinaeIS9_EEXT_EE20__good_rval_ref_typeE, symObjAddr: 0x8A48, symBinAddr: 0x100009510, symSize: 0x3C }
  - { offsetInCU: 0x22D4C, offset: 0x22D4C, size: 0x8, addend: 0x0, symName: __ZNSt3__116allocator_traitsINS_9allocatorINS_11__hash_nodeINS_17__hash_value_typeIccEEPvEEEEE9constructB8ue170006INS_4pairIKccEEJRKSC_EvEEvRS7_PT_DpOT0_, symObjAddr: 0x8A84, symBinAddr: 0x10000954C, symSize: 0x34 }
  - { offsetInCU: 0x22DA3, offset: 0x22DA3, size: 0x8, addend: 0x0, symName: __ZNSt3__122__hash_key_value_typesINS_17__hash_value_typeIccEEE9__get_ptrB8ue170006ERS2_, symObjAddr: 0x8AB8, symBinAddr: 0x100009580, symSize: 0x24 }
  - { offsetInCU: 0x22DC6, offset: 0x22DC6, size: 0x8, addend: 0x0, symName: __ZNSt3__110unique_ptrINS_11__hash_nodeINS_17__hash_value_typeIccEEPvEENS_22__hash_node_destructorINS_9allocatorIS5_EEEEE11get_deleterB8ue170006Ev, symObjAddr: 0x8ADC, symBinAddr: 0x1000095A4, symSize: 0x24 }
  - { offsetInCU: 0x22DEC, offset: 0x22DEC, size: 0x8, addend: 0x0, symName: __ZNSt3__117__compressed_pairINS_16__hash_node_baseIPNS_11__hash_nodeINS_17__hash_value_typeIccEEPvEEEENS_9allocatorIS6_EEE6secondB8ue170006Ev, symObjAddr: 0x8B00, symBinAddr: 0x1000095C8, symSize: 0x24 }
  - { offsetInCU: 0x22E12, offset: 0x22E12, size: 0x8, addend: 0x0, symName: __ZNSt3__122__compressed_pair_elemINS_9allocatorINS_11__hash_nodeINS_17__hash_value_typeIccEEPvEEEELi1ELb1EE5__getB8ue170006Ev, symObjAddr: 0x8B24, symBinAddr: 0x1000095EC, symSize: 0x14 }
  - { offsetInCU: 0x22E38, offset: 0x22E38, size: 0x8, addend: 0x0, symName: __ZNSt3__19allocatorINS_11__hash_nodeINS_17__hash_value_typeIccEEPvEEE8allocateB8ue170006Em, symObjAddr: 0x8B38, symBinAddr: 0x100009600, symSize: 0x5C }
  - { offsetInCU: 0x22E77, offset: 0x22E77, size: 0x8, addend: 0x0, symName: __ZNSt3__116allocator_traitsINS_9allocatorINS_11__hash_nodeINS_17__hash_value_typeIccEEPvEEEEE8max_sizeB8ue170006IS7_vEEmRKS7_, symObjAddr: 0x8B94, symBinAddr: 0x10000965C, symSize: 0x24 }
  - { offsetInCU: 0x22EA5, offset: 0x22EA5, size: 0x8, addend: 0x0, symName: __ZNKSt3__19allocatorINS_11__hash_nodeINS_17__hash_value_typeIccEEPvEEE8max_sizeB8ue170006Ev, symObjAddr: 0x8C4C, symBinAddr: 0x100009714, symSize: 0x18 }
  - { offsetInCU: 0x22ECB, offset: 0x22ECB, size: 0x8, addend: 0x0, symName: __ZNSt3__122__hash_node_destructorINS_9allocatorINS_11__hash_nodeINS_17__hash_value_typeIccEEPvEEEEEC2B8ue170006ERS7_b, symObjAddr: 0x8CD4, symBinAddr: 0x10000979C, symSize: 0x38 }
  - { offsetInCU: 0x22F13, offset: 0x22F13, size: 0x8, addend: 0x0, symName: __ZNSt3__110unique_ptrINS_11__hash_nodeINS_17__hash_value_typeIccEEPvEENS_22__hash_node_destructorINS_9allocatorIS5_EEEEEC2B8ue170006ILb1EvEEPS5_NS_16__dependent_typeINS_27__unique_ptr_deleter_sfinaeIS9_EEXT_EE20__good_rval_ref_typeE, symObjAddr: 0x8D0C, symBinAddr: 0x1000097D4, symSize: 0x48 }
  - { offsetInCU: 0x22F64, offset: 0x22F64, size: 0x8, addend: 0x0, symName: __ZNSt3__117__compressed_pairIPNS_11__hash_nodeINS_17__hash_value_typeIccEEPvEENS_22__hash_node_destructorINS_9allocatorIS5_EEEEEC1B8ue170006IRS6_SA_EEOT_OT0_, symObjAddr: 0x8D54, symBinAddr: 0x10000981C, symSize: 0x3C }
  - { offsetInCU: 0x22FBC, offset: 0x22FBC, size: 0x8, addend: 0x0, symName: __ZNSt3__117__compressed_pairIPNS_11__hash_nodeINS_17__hash_value_typeIccEEPvEENS_22__hash_node_destructorINS_9allocatorIS5_EEEEEC2B8ue170006IRS6_SA_EEOT_OT0_, symObjAddr: 0x8D90, symBinAddr: 0x100009858, symSize: 0x48 }
  - { offsetInCU: 0x23014, offset: 0x23014, size: 0x8, addend: 0x0, symName: __ZNSt3__122__compressed_pair_elemIPNS_11__hash_nodeINS_17__hash_value_typeIccEEPvEELi0ELb0EEC2B8ue170006IRS6_vEEOT_, symObjAddr: 0x8DD8, symBinAddr: 0x1000098A0, symSize: 0x24 }
  - { offsetInCU: 0x23056, offset: 0x23056, size: 0x8, addend: 0x0, symName: __ZNSt3__122__compressed_pair_elemINS_22__hash_node_destructorINS_9allocatorINS_11__hash_nodeINS_17__hash_value_typeIccEEPvEEEEEELi1ELb0EEC2B8ue170006IS9_vEEOT_, symObjAddr: 0x8DFC, symBinAddr: 0x1000098C4, symSize: 0x24 }
  - { offsetInCU: 0x23098, offset: 0x23098, size: 0x8, addend: 0x0, symName: __ZNSt3__19allocatorINS_11__hash_nodeINS_17__hash_value_typeIccEEPvEEE9constructB8ue170006INS_4pairIKccEEJRKSA_EEEvPT_DpOT0_, symObjAddr: 0x8E20, symBinAddr: 0x1000098E8, symSize: 0x28 }
  - { offsetInCU: 0x230EE, offset: 0x230EE, size: 0x8, addend: 0x0, symName: __ZNSt3__117__hash_value_typeIccE11__get_valueB8ue170006Ev, symObjAddr: 0x8E48, symBinAddr: 0x100009910, symSize: 0x24 }
  - { offsetInCU: 0x23114, offset: 0x23114, size: 0x8, addend: 0x0, symName: __ZNSt3__117__compressed_pairIPNS_11__hash_nodeINS_17__hash_value_typeIccEEPvEENS_22__hash_node_destructorINS_9allocatorIS5_EEEEE6secondB8ue170006Ev, symObjAddr: 0x8EA4, symBinAddr: 0x10000996C, symSize: 0x28 }
  - { offsetInCU: 0x2313A, offset: 0x2313A, size: 0x8, addend: 0x0, symName: __ZNSt3__122__compressed_pair_elemINS_22__hash_node_destructorINS_9allocatorINS_11__hash_nodeINS_17__hash_value_typeIccEEPvEEEEEELi1ELb0EE5__getB8ue170006Ev, symObjAddr: 0x8ECC, symBinAddr: 0x100009994, symSize: 0x14 }
  - { offsetInCU: 0x23160, offset: 0x23160, size: 0x8, addend: 0x0, symName: __ZNSt3__117__compressed_pairImNS_22__unordered_map_hasherIcNS_17__hash_value_typeIccEENS_4hashIcEENS_8equal_toIcEELb1EEEE5firstB8ue170006Ev, symObjAddr: 0x8EE0, symBinAddr: 0x1000099A8, symSize: 0x24 }
  - { offsetInCU: 0x23186, offset: 0x23186, size: 0x8, addend: 0x0, symName: __ZNSt3__122__compressed_pair_elemImLi0ELb0EE5__getB8ue170006Ev, symObjAddr: 0x8F04, symBinAddr: 0x1000099CC, symSize: 0x14 }
  - { offsetInCU: 0x231AC, offset: 0x231AC, size: 0x8, addend: 0x0, symName: __ZNSt3__117__compressed_pairIfNS_21__unordered_map_equalIcNS_17__hash_value_typeIccEENS_8equal_toIcEENS_4hashIcEELb1EEEE5firstB8ue170006Ev, symObjAddr: 0x8F18, symBinAddr: 0x1000099E0, symSize: 0x24 }
  - { offsetInCU: 0x231D2, offset: 0x231D2, size: 0x8, addend: 0x0, symName: __ZNSt3__122__compressed_pair_elemIfLi0ELb0EE5__getB8ue170006Ev, symObjAddr: 0x8F3C, symBinAddr: 0x100009A04, symSize: 0x14 }
  - { offsetInCU: 0x231F8, offset: 0x231F8, size: 0x8, addend: 0x0, symName: __ZNSt3__112__hash_tableINS_17__hash_value_typeIccEENS_22__unordered_map_hasherIcS2_NS_4hashIcEENS_8equal_toIcEELb1EEENS_21__unordered_map_equalIcS2_S7_S5_Lb1EEENS_9allocatorIS2_EEE8__rehashILb1EEEvm, symObjAddr: 0x8F50, symBinAddr: 0x100009A18, symSize: 0x1A8 }
  - { offsetInCU: 0x23248, offset: 0x23248, size: 0x8, addend: 0x0, symName: __ZNSt3__112__hash_tableINS_17__hash_value_typeIccEENS_22__unordered_map_hasherIcS2_NS_4hashIcEENS_8equal_toIcEELb1EEENS_21__unordered_map_equalIcS2_S7_S5_Lb1EEENS_9allocatorIS2_EEE11__do_rehashILb1EEEvm, symObjAddr: 0x90F8, symBinAddr: 0x100009BC0, symSize: 0x288 }
  - { offsetInCU: 0x2332B, offset: 0x2332B, size: 0x8, addend: 0x0, symName: __ZNSt3__110unique_ptrIA_PNS_16__hash_node_baseIPNS_11__hash_nodeINS_17__hash_value_typeIccEEPvEEEENS_25__bucket_list_deallocatorINS_9allocatorIS9_EEEEE11get_deleterB8ue170006Ev, symObjAddr: 0x93EC, symBinAddr: 0x100009EB4, symSize: 0x24 }
  - { offsetInCU: 0x23351, offset: 0x23351, size: 0x8, addend: 0x0, symName: __ZNSt3__125__bucket_list_deallocatorINS_9allocatorIPNS_16__hash_node_baseIPNS_11__hash_nodeINS_17__hash_value_typeIccEEPvEEEEEEE7__allocB8ue170006Ev, symObjAddr: 0x9410, symBinAddr: 0x100009ED8, symSize: 0x24 }
  - { offsetInCU: 0x23377, offset: 0x23377, size: 0x8, addend: 0x0, symName: __ZNSt3__110unique_ptrIA_PNS_16__hash_node_baseIPNS_11__hash_nodeINS_17__hash_value_typeIccEEPvEEEENS_25__bucket_list_deallocatorINS_9allocatorIS9_EEEEE5resetB8ue170006IPS9_EENS_9enable_ifIXsr28_CheckArrayPointerConversionIT_EE5valueEvE4typeESJ_, symObjAddr: 0x9434, symBinAddr: 0x100009EFC, symSize: 0x78 }
  - { offsetInCU: 0x233C4, offset: 0x233C4, size: 0x8, addend: 0x0, symName: __ZNSt3__116allocator_traitsINS_9allocatorIPNS_16__hash_node_baseIPNS_11__hash_nodeINS_17__hash_value_typeIccEEPvEEEEEEE8allocateB8ue170006ERSB_m, symObjAddr: 0x94AC, symBinAddr: 0x100009F74, symSize: 0x2C }
  - { offsetInCU: 0x233F7, offset: 0x233F7, size: 0x8, addend: 0x0, symName: __ZNSt3__125__bucket_list_deallocatorINS_9allocatorIPNS_16__hash_node_baseIPNS_11__hash_nodeINS_17__hash_value_typeIccEEPvEEEEEEE4sizeB8ue170006Ev, symObjAddr: 0x94D8, symBinAddr: 0x100009FA0, symSize: 0x24 }
  - { offsetInCU: 0x2341D, offset: 0x2341D, size: 0x8, addend: 0x0, symName: __ZNSt3__117__compressed_pairIPPNS_16__hash_node_baseIPNS_11__hash_nodeINS_17__hash_value_typeIccEEPvEEEENS_25__bucket_list_deallocatorINS_9allocatorIS9_EEEEE6secondB8ue170006Ev, symObjAddr: 0x94FC, symBinAddr: 0x100009FC4, symSize: 0x28 }
  - { offsetInCU: 0x23443, offset: 0x23443, size: 0x8, addend: 0x0, symName: __ZNSt3__122__compressed_pair_elemINS_25__bucket_list_deallocatorINS_9allocatorIPNS_16__hash_node_baseIPNS_11__hash_nodeINS_17__hash_value_typeIccEEPvEEEEEEEELi1ELb0EE5__getB8ue170006Ev, symObjAddr: 0x9524, symBinAddr: 0x100009FEC, symSize: 0x14 }
  - { offsetInCU: 0x23469, offset: 0x23469, size: 0x8, addend: 0x0, symName: __ZNSt3__117__compressed_pairImNS_9allocatorIPNS_16__hash_node_baseIPNS_11__hash_nodeINS_17__hash_value_typeIccEEPvEEEEEEE6secondB8ue170006Ev, symObjAddr: 0x9538, symBinAddr: 0x10000A000, symSize: 0x24 }
  - { offsetInCU: 0x2348F, offset: 0x2348F, size: 0x8, addend: 0x0, symName: __ZNSt3__122__compressed_pair_elemINS_9allocatorIPNS_16__hash_node_baseIPNS_11__hash_nodeINS_17__hash_value_typeIccEEPvEEEEEELi1ELb1EE5__getB8ue170006Ev, symObjAddr: 0x955C, symBinAddr: 0x10000A024, symSize: 0x14 }
  - { offsetInCU: 0x234B5, offset: 0x234B5, size: 0x8, addend: 0x0, symName: __ZNSt3__117__compressed_pairIPPNS_16__hash_node_baseIPNS_11__hash_nodeINS_17__hash_value_typeIccEEPvEEEENS_25__bucket_list_deallocatorINS_9allocatorIS9_EEEEE5firstB8ue170006Ev, symObjAddr: 0x9570, symBinAddr: 0x10000A038, symSize: 0x24 }
  - { offsetInCU: 0x234DB, offset: 0x234DB, size: 0x8, addend: 0x0, symName: __ZNSt3__125__bucket_list_deallocatorINS_9allocatorIPNS_16__hash_node_baseIPNS_11__hash_nodeINS_17__hash_value_typeIccEEPvEEEEEEEclB8ue170006EPSA_, symObjAddr: 0x9594, symBinAddr: 0x10000A05C, symSize: 0x58 }
  - { offsetInCU: 0x23510, offset: 0x23510, size: 0x8, addend: 0x0, symName: __ZNSt3__122__compressed_pair_elemIPPNS_16__hash_node_baseIPNS_11__hash_nodeINS_17__hash_value_typeIccEEPvEEEELi0ELb0EE5__getB8ue170006Ev, symObjAddr: 0x95EC, symBinAddr: 0x10000A0B4, symSize: 0x14 }
  - { offsetInCU: 0x23536, offset: 0x23536, size: 0x8, addend: 0x0, symName: __ZNSt3__116allocator_traitsINS_9allocatorIPNS_16__hash_node_baseIPNS_11__hash_nodeINS_17__hash_value_typeIccEEPvEEEEEEE10deallocateB8ue170006ERSB_PSA_m, symObjAddr: 0x9600, symBinAddr: 0x10000A0C8, symSize: 0x34 }
  - { offsetInCU: 0x23578, offset: 0x23578, size: 0x8, addend: 0x0, symName: __ZNSt3__19allocatorIPNS_16__hash_node_baseIPNS_11__hash_nodeINS_17__hash_value_typeIccEEPvEEEEE10deallocateB8ue170006EPS9_m, symObjAddr: 0x9634, symBinAddr: 0x10000A0FC, symSize: 0x40 }
  - { offsetInCU: 0x235BA, offset: 0x235BA, size: 0x8, addend: 0x0, symName: __ZNSt3__19allocatorIPNS_16__hash_node_baseIPNS_11__hash_nodeINS_17__hash_value_typeIccEEPvEEEEE8allocateB8ue170006Em, symObjAddr: 0x977C, symBinAddr: 0x10000A244, symSize: 0x58 }
  - { offsetInCU: 0x235F9, offset: 0x235F9, size: 0x8, addend: 0x0, symName: __ZNSt3__116allocator_traitsINS_9allocatorIPNS_16__hash_node_baseIPNS_11__hash_nodeINS_17__hash_value_typeIccEEPvEEEEEEE8max_sizeB8ue170006ISB_vEEmRKSB_, symObjAddr: 0x97D4, symBinAddr: 0x10000A29C, symSize: 0x24 }
  - { offsetInCU: 0x23627, offset: 0x23627, size: 0x8, addend: 0x0, symName: __ZNKSt3__19allocatorIPNS_16__hash_node_baseIPNS_11__hash_nodeINS_17__hash_value_typeIccEEPvEEEEE8max_sizeB8ue170006Ev, symObjAddr: 0x97F8, symBinAddr: 0x10000A2C0, symSize: 0x14 }
  - { offsetInCU: 0x2364D, offset: 0x2364D, size: 0x8, addend: 0x0, symName: __ZNSt3__117__compressed_pairImNS_9allocatorIPNS_16__hash_node_baseIPNS_11__hash_nodeINS_17__hash_value_typeIccEEPvEEEEEEE5firstB8ue170006Ev, symObjAddr: 0x980C, symBinAddr: 0x10000A2D4, symSize: 0x24 }
  - { offsetInCU: 0x2367D, offset: 0x2367D, size: 0x8, addend: 0x0, symName: __ZNKSt3__16__lessIvvEclB8ue170006ImmEEbRKT_RKT0_, symObjAddr: 0x98A0, symBinAddr: 0x10000A368, symSize: 0x34 }
  - { offsetInCU: 0x236D1, offset: 0x236D1, size: 0x8, addend: 0x0, symName: __ZNSt3__122__compressed_pair_elemINS_16__hash_node_baseIPNS_11__hash_nodeINS_17__hash_value_typeIccEEPvEEEELi0ELb0EE5__getB8ue170006Ev, symObjAddr: 0x98D4, symBinAddr: 0x10000A39C, symSize: 0x14 }
  - { offsetInCU: 0x236F7, offset: 0x236F7, size: 0x8, addend: 0x0, symName: __ZNKSt3__117__compressed_pairIPNS_11__hash_nodeINS_17__hash_value_typeIccEEPvEENS_22__hash_node_destructorINS_9allocatorIS5_EEEEE5firstB8ue170006Ev, symObjAddr: 0x98E8, symBinAddr: 0x10000A3B0, symSize: 0x24 }
  - { offsetInCU: 0x2371D, offset: 0x2371D, size: 0x8, addend: 0x0, symName: __ZNKSt3__122__compressed_pair_elemIPNS_11__hash_nodeINS_17__hash_value_typeIccEEPvEELi0ELb0EE5__getB8ue170006Ev, symObjAddr: 0x990C, symBinAddr: 0x10000A3D4, symSize: 0x14 }
  - { offsetInCU: 0x23743, offset: 0x23743, size: 0x8, addend: 0x0, symName: __ZNSt3__117__compressed_pairIPNS_11__hash_nodeINS_17__hash_value_typeIccEEPvEENS_22__hash_node_destructorINS_9allocatorIS5_EEEEE5firstB8ue170006Ev, symObjAddr: 0x9920, symBinAddr: 0x10000A3E8, symSize: 0x24 }
  - { offsetInCU: 0x23769, offset: 0x23769, size: 0x8, addend: 0x0, symName: __ZNSt3__122__compressed_pair_elemIPNS_11__hash_nodeINS_17__hash_value_typeIccEEPvEELi0ELb0EE5__getB8ue170006Ev, symObjAddr: 0x9944, symBinAddr: 0x10000A40C, symSize: 0x14 }
  - { offsetInCU: 0x2378F, offset: 0x2378F, size: 0x8, addend: 0x0, symName: __ZNSt3__110unique_ptrINS_11__hash_nodeINS_17__hash_value_typeIccEEPvEENS_22__hash_node_destructorINS_9allocatorIS5_EEEEED2B8ue170006Ev, symObjAddr: 0x9958, symBinAddr: 0x10000A420, symSize: 0x30 }
  - { offsetInCU: 0x237B9, offset: 0x237B9, size: 0x8, addend: 0x0, symName: __ZNSt3__110unique_ptrINS_11__hash_nodeINS_17__hash_value_typeIccEEPvEENS_22__hash_node_destructorINS_9allocatorIS5_EEEEE5resetB8ue170006EPS5_, symObjAddr: 0x9988, symBinAddr: 0x10000A450, symSize: 0x78 }
  - { offsetInCU: 0x237FD, offset: 0x237FD, size: 0x8, addend: 0x0, symName: __ZNSt3__122__hash_node_destructorINS_9allocatorINS_11__hash_nodeINS_17__hash_value_typeIccEEPvEEEEEclB8ue170006EPS6_, symObjAddr: 0x9A00, symBinAddr: 0x10000A4C8, symSize: 0x98 }
  - { offsetInCU: 0x23832, offset: 0x23832, size: 0x8, addend: 0x0, symName: __ZNSt3__116allocator_traitsINS_9allocatorINS_11__hash_nodeINS_17__hash_value_typeIccEEPvEEEEE7destroyB8ue170006INS_4pairIKccEEvvEEvRS7_PT_, symObjAddr: 0x9A98, symBinAddr: 0x10000A560, symSize: 0x14 }
  - { offsetInCU: 0x2386C, offset: 0x2386C, size: 0x8, addend: 0x0, symName: __ZNSt3__116allocator_traitsINS_9allocatorINS_11__hash_nodeINS_17__hash_value_typeIccEEPvEEEEE10deallocateB8ue170006ERS7_PS6_m, symObjAddr: 0x9AAC, symBinAddr: 0x10000A574, symSize: 0x34 }
  - { offsetInCU: 0x238AE, offset: 0x238AE, size: 0x8, addend: 0x0, symName: __ZNSt3__19allocatorINS_11__hash_nodeINS_17__hash_value_typeIccEEPvEEE10deallocateB8ue170006EPS5_m, symObjAddr: 0x9AE0, symBinAddr: 0x10000A5A8, symSize: 0x44 }
  - { offsetInCU: 0x238F0, offset: 0x238F0, size: 0x8, addend: 0x0, symName: __ZNSt3__115__hash_iteratorIPNS_11__hash_nodeINS_17__hash_value_typeIccEEPvEEEC2B8ue170006EPNS_16__hash_node_baseIS6_EE, symObjAddr: 0x9B24, symBinAddr: 0x10000A5EC, symSize: 0x20 }
  - { offsetInCU: 0x23929, offset: 0x23929, size: 0x8, addend: 0x0, symName: __ZNSt3__14pairINS_15__hash_iteratorIPNS_11__hash_nodeINS_17__hash_value_typeIccEEPvEEEEbEC2B8ue170006IS8_RbLS5_0EEEOT_OT0_, symObjAddr: 0x9B44, symBinAddr: 0x10000A60C, symSize: 0x38 }
  - { offsetInCU: 0x23987, offset: 0x23987, size: 0x8, addend: 0x0, symName: __ZNSt3__112__hash_tableINS_17__hash_value_typeIccEENS_22__unordered_map_hasherIcS2_NS_4hashIcEENS_8equal_toIcEELb1EEENS_21__unordered_map_equalIcS2_S7_S5_Lb1EEENS_9allocatorIS2_EEED2Ev, symObjAddr: 0x9B7C, symBinAddr: 0x10000A644, symSize: 0x48 }
  - { offsetInCU: 0x239B3, offset: 0x239B3, size: 0x8, addend: 0x0, symName: __ZNSt3__112__hash_tableINS_17__hash_value_typeIccEENS_22__unordered_map_hasherIcS2_NS_4hashIcEENS_8equal_toIcEELb1EEENS_21__unordered_map_equalIcS2_S7_S5_Lb1EEENS_9allocatorIS2_EEE17__deallocate_nodeEPNS_16__hash_node_baseIPNS_11__hash_nodeIS2_PvEEEE, symObjAddr: 0x9BC4, symBinAddr: 0x10000A68C, symSize: 0xA4 }
  - { offsetInCU: 0x23A1D, offset: 0x23A1D, size: 0x8, addend: 0x0, symName: __ZNSt3__110unique_ptrIA_PNS_16__hash_node_baseIPNS_11__hash_nodeINS_17__hash_value_typeIccEEPvEEEENS_25__bucket_list_deallocatorINS_9allocatorIS9_EEEEED1B8ue170006Ev, symObjAddr: 0x9C68, symBinAddr: 0x10000A730, symSize: 0x2C }
  - { offsetInCU: 0x23A47, offset: 0x23A47, size: 0x8, addend: 0x0, symName: __ZNSt3__110unique_ptrIA_PNS_16__hash_node_baseIPNS_11__hash_nodeINS_17__hash_value_typeIccEEPvEEEENS_25__bucket_list_deallocatorINS_9allocatorIS9_EEEEED2B8ue170006Ev, symObjAddr: 0x9C94, symBinAddr: 0x10000A75C, symSize: 0x30 }
  - { offsetInCU: 0x23A71, offset: 0x23A71, size: 0x8, addend: 0x0, symName: __ZNSt3__110unique_ptrIA_PNS_16__hash_node_baseIPNS_11__hash_nodeINS_17__hash_value_typeIccEEPvEEEENS_25__bucket_list_deallocatorINS_9allocatorIS9_EEEEE5resetB8ue170006EDn, symObjAddr: 0x9CC4, symBinAddr: 0x10000A78C, symSize: 0x6C }
  - { offsetInCU: 0x23AB1, offset: 0x23AB1, size: 0x8, addend: 0x0, symName: __ZNSt3__113unordered_mapIccNS_4hashIcEENS_8equal_toIcEENS_9allocatorINS_4pairIKccEEEEED2B8ue170006Ev, symObjAddr: 0x9D30, symBinAddr: 0x10000A7F8, symSize: 0x2C }
  - { offsetInCU: 0x23ADB, offset: 0x23ADB, size: 0x8, addend: 0x0, symName: __ZNSt3__16vectorIcNS_9allocatorIcEEEC2B8ue170006ESt16initializer_listIcE, symObjAddr: 0x9D5C, symBinAddr: 0x10000A824, symSize: 0x120 }
  - { offsetInCU: 0x23B31, offset: 0x23B31, size: 0x8, addend: 0x0, symName: __ZNSt3__117__compressed_pairIPcNS_9allocatorIcEEEC1B8ue170006IDnNS_18__default_init_tagEEEOT_OT0_, symObjAddr: 0x9E7C, symBinAddr: 0x10000A944, symSize: 0x3C }
  - { offsetInCU: 0x23B89, offset: 0x23B89, size: 0x8, addend: 0x0, symName: __ZNSt3__16vectorIcNS_9allocatorIcEEE16__destroy_vectorC1B8ue170006ERS3_, symObjAddr: 0x9EF8, symBinAddr: 0x10000A9C0, symSize: 0x34 }
  - { offsetInCU: 0x23BC2, offset: 0x23BC2, size: 0x8, addend: 0x0, symName: __ZNKSt16initializer_listIcE4sizeB8ue170006Ev, symObjAddr: 0x9F2C, symBinAddr: 0x10000A9F4, symSize: 0x18 }
  - { offsetInCU: 0x23BE8, offset: 0x23BE8, size: 0x8, addend: 0x0, symName: __ZNSt3__16vectorIcNS_9allocatorIcEEE11__vallocateB8ue170006Em, symObjAddr: 0x9F44, symBinAddr: 0x10000AA0C, symSize: 0xAC }
  - { offsetInCU: 0x23C2C, offset: 0x23C2C, size: 0x8, addend: 0x0, symName: __ZNSt3__16vectorIcNS_9allocatorIcEEE18__construct_at_endIPKcS6_EEvT_T0_m, symObjAddr: 0x9FF0, symBinAddr: 0x10000AAB8, symSize: 0x8C }
  - { offsetInCU: 0x23CA2, offset: 0x23CA2, size: 0x8, addend: 0x0, symName: __ZNKSt16initializer_listIcE5beginB8ue170006Ev, symObjAddr: 0xA07C, symBinAddr: 0x10000AB44, symSize: 0x18 }
  - { offsetInCU: 0x23CC8, offset: 0x23CC8, size: 0x8, addend: 0x0, symName: __ZNKSt16initializer_listIcE3endB8ue170006Ev, symObjAddr: 0xA094, symBinAddr: 0x10000AB5C, symSize: 0x20 }
  - { offsetInCU: 0x23CEE, offset: 0x23CEE, size: 0x8, addend: 0x0, symName: __ZNSt3__128__exception_guard_exceptionsINS_6vectorIcNS_9allocatorIcEEE16__destroy_vectorEE10__completeB8ue170006Ev, symObjAddr: 0xA0B4, symBinAddr: 0x10000AB7C, symSize: 0x1C }
  - { offsetInCU: 0x23D14, offset: 0x23D14, size: 0x8, addend: 0x0, symName: __ZNSt3__128__exception_guard_exceptionsINS_6vectorIcNS_9allocatorIcEEE16__destroy_vectorEED1B8ue170006Ev, symObjAddr: 0xA0D0, symBinAddr: 0x10000AB98, symSize: 0x2C }
  - { offsetInCU: 0x23D3E, offset: 0x23D3E, size: 0x8, addend: 0x0, symName: __ZNSt3__117__compressed_pairIPcNS_9allocatorIcEEEC2B8ue170006IDnNS_18__default_init_tagEEEOT_OT0_, symObjAddr: 0xA0FC, symBinAddr: 0x10000ABC4, symSize: 0x40 }
  - { offsetInCU: 0x23D96, offset: 0x23D96, size: 0x8, addend: 0x0, symName: __ZNSt3__122__compressed_pair_elemIPcLi0ELb0EEC2B8ue170006IDnvEEOT_, symObjAddr: 0xA13C, symBinAddr: 0x10000AC04, symSize: 0x1C }
  - { offsetInCU: 0x23DD8, offset: 0x23DD8, size: 0x8, addend: 0x0, symName: __ZNSt3__122__compressed_pair_elemINS_9allocatorIcEELi1ELb1EEC2B8ue170006ENS_18__default_init_tagE, symObjAddr: 0xA158, symBinAddr: 0x10000AC20, symSize: 0x2C }
  - { offsetInCU: 0x23E0C, offset: 0x23E0C, size: 0x8, addend: 0x0, symName: __ZNSt3__19allocatorIcEC2B8ue170006Ev, symObjAddr: 0xA184, symBinAddr: 0x10000AC4C, symSize: 0x2C }
  - { offsetInCU: 0x23E36, offset: 0x23E36, size: 0x8, addend: 0x0, symName: __ZNSt3__116__non_trivial_ifILb1ENS_9allocatorIcEEEC2B8ue170006Ev, symObjAddr: 0xA1B0, symBinAddr: 0x10000AC78, symSize: 0x14 }
  - { offsetInCU: 0x23E60, offset: 0x23E60, size: 0x8, addend: 0x0, symName: __ZNSt3__128__exception_guard_exceptionsINS_6vectorIcNS_9allocatorIcEEE16__destroy_vectorEEC1B8ue170006ES5_, symObjAddr: 0xA1C4, symBinAddr: 0x10000AC8C, symSize: 0x34 }
  - { offsetInCU: 0x23E98, offset: 0x23E98, size: 0x8, addend: 0x0, symName: __ZNSt3__128__exception_guard_exceptionsINS_6vectorIcNS_9allocatorIcEEE16__destroy_vectorEEC2B8ue170006ES5_, symObjAddr: 0xA1F8, symBinAddr: 0x10000ACC0, symSize: 0x24 }
  - { offsetInCU: 0x23ED0, offset: 0x23ED0, size: 0x8, addend: 0x0, symName: __ZNSt3__16vectorIcNS_9allocatorIcEEE16__destroy_vectorC2B8ue170006ERS3_, symObjAddr: 0xA21C, symBinAddr: 0x10000ACE4, symSize: 0x20 }
  - { offsetInCU: 0x23F09, offset: 0x23F09, size: 0x8, addend: 0x0, symName: __ZNKSt3__16vectorIcNS_9allocatorIcEEE8max_sizeEv, symObjAddr: 0xA23C, symBinAddr: 0x10000AD04, symSize: 0x60 }
  - { offsetInCU: 0x23F31, offset: 0x23F31, size: 0x8, addend: 0x0, symName: __ZNKSt3__16vectorIcNS_9allocatorIcEEE20__throw_length_errorB8ue170006Ev, symObjAddr: 0xA29C, symBinAddr: 0x10000AD64, symSize: 0x1C }
  - { offsetInCU: 0x23F57, offset: 0x23F57, size: 0x8, addend: 0x0, symName: __ZNSt3__16vectorIcNS_9allocatorIcEEE7__allocB8ue170006Ev, symObjAddr: 0xA2F8, symBinAddr: 0x10000ADC0, symSize: 0x28 }
  - { offsetInCU: 0x23F7D, offset: 0x23F7D, size: 0x8, addend: 0x0, symName: __ZNSt3__16vectorIcNS_9allocatorIcEEE9__end_capB8ue170006Ev, symObjAddr: 0xA320, symBinAddr: 0x10000ADE8, symSize: 0x28 }
  - { offsetInCU: 0x23FA3, offset: 0x23FA3, size: 0x8, addend: 0x0, symName: __ZNKSt3__16vectorIcNS_9allocatorIcEEE14__annotate_newB8ue170006Em, symObjAddr: 0xA348, symBinAddr: 0x10000AE10, symSize: 0xAC }
  - { offsetInCU: 0x23FE3, offset: 0x23FE3, size: 0x8, addend: 0x0, symName: __ZNSt3__116allocator_traitsINS_9allocatorIcEEE8max_sizeB8ue170006IS2_vEEmRKS2_, symObjAddr: 0xA420, symBinAddr: 0x10000AEE8, symSize: 0x24 }
  - { offsetInCU: 0x24011, offset: 0x24011, size: 0x8, addend: 0x0, symName: __ZNKSt3__16vectorIcNS_9allocatorIcEEE7__allocB8ue170006Ev, symObjAddr: 0xA444, symBinAddr: 0x10000AF0C, symSize: 0x28 }
  - { offsetInCU: 0x24037, offset: 0x24037, size: 0x8, addend: 0x0, symName: __ZNSt3__114numeric_limitsIlE3maxB8ue170006Ev, symObjAddr: 0xA46C, symBinAddr: 0x10000AF34, symSize: 0x14 }
  - { offsetInCU: 0x2404B, offset: 0x2404B, size: 0x8, addend: 0x0, symName: __ZNKSt3__19allocatorIcE8max_sizeB8ue170006Ev, symObjAddr: 0xA4D4, symBinAddr: 0x10000AF9C, symSize: 0x14 }
  - { offsetInCU: 0x24071, offset: 0x24071, size: 0x8, addend: 0x0, symName: __ZNKSt3__117__compressed_pairIPcNS_9allocatorIcEEE6secondB8ue170006Ev, symObjAddr: 0xA4E8, symBinAddr: 0x10000AFB0, symSize: 0x24 }
  - { offsetInCU: 0x24097, offset: 0x24097, size: 0x8, addend: 0x0, symName: __ZNKSt3__122__compressed_pair_elemINS_9allocatorIcEELi1ELb1EE5__getB8ue170006Ev, symObjAddr: 0xA50C, symBinAddr: 0x10000AFD4, symSize: 0x14 }
  - { offsetInCU: 0x240BD, offset: 0x240BD, size: 0x8, addend: 0x0, symName: __ZNSt3__123__libcpp_numeric_limitsIlLb1EE3maxB8ue170006Ev, symObjAddr: 0xA520, symBinAddr: 0x10000AFE8, symSize: 0x8 }
  - { offsetInCU: 0x240D1, offset: 0x240D1, size: 0x8, addend: 0x0, symName: __ZNSt12length_errorC1B8ue170006EPKc, symObjAddr: 0xA58C, symBinAddr: 0x10000B054, symSize: 0x34 }
  - { offsetInCU: 0x24109, offset: 0x24109, size: 0x8, addend: 0x0, symName: __ZNSt12length_errorC2B8ue170006EPKc, symObjAddr: 0xA5C0, symBinAddr: 0x10000B088, symSize: 0x4C }
  - { offsetInCU: 0x24141, offset: 0x24141, size: 0x8, addend: 0x0, symName: __ZNSt3__19allocatorIcE8allocateB8ue170006Em, symObjAddr: 0xA60C, symBinAddr: 0x10000B0D4, symSize: 0x58 }
  - { offsetInCU: 0x24175, offset: 0x24175, size: 0x8, addend: 0x0, symName: __ZNSt3__117__compressed_pairIPcNS_9allocatorIcEEE6secondB8ue170006Ev, symObjAddr: 0xA664, symBinAddr: 0x10000B12C, symSize: 0x24 }
  - { offsetInCU: 0x2419B, offset: 0x2419B, size: 0x8, addend: 0x0, symName: __ZNSt3__122__compressed_pair_elemINS_9allocatorIcEELi1ELb1EE5__getB8ue170006Ev, symObjAddr: 0xA688, symBinAddr: 0x10000B150, symSize: 0x14 }
  - { offsetInCU: 0x241C1, offset: 0x241C1, size: 0x8, addend: 0x0, symName: __ZNSt3__117__compressed_pairIPcNS_9allocatorIcEEE5firstB8ue170006Ev, symObjAddr: 0xA69C, symBinAddr: 0x10000B164, symSize: 0x24 }
  - { offsetInCU: 0x241E7, offset: 0x241E7, size: 0x8, addend: 0x0, symName: __ZNSt3__122__compressed_pair_elemIPcLi0ELb0EE5__getB8ue170006Ev, symObjAddr: 0xA6C0, symBinAddr: 0x10000B188, symSize: 0x14 }
  - { offsetInCU: 0x2420D, offset: 0x2420D, size: 0x8, addend: 0x0, symName: __ZNKSt3__16vectorIcNS_9allocatorIcEEE31__annotate_contiguous_containerB8ue170006EPKvS5_S5_S5_, symObjAddr: 0xA6D4, symBinAddr: 0x10000B19C, symSize: 0x20 }
  - { offsetInCU: 0x2425F, offset: 0x2425F, size: 0x8, addend: 0x0, symName: __ZNKSt3__16vectorIcNS_9allocatorIcEEE4dataB8ue170006Ev, symObjAddr: 0xA6F4, symBinAddr: 0x10000B1BC, symSize: 0x28 }
  - { offsetInCU: 0x24285, offset: 0x24285, size: 0x8, addend: 0x0, symName: __ZNKSt3__16vectorIcNS_9allocatorIcEEE8capacityB8ue170006Ev, symObjAddr: 0xA71C, symBinAddr: 0x10000B1E4, symSize: 0x38 }
  - { offsetInCU: 0x242AB, offset: 0x242AB, size: 0x8, addend: 0x0, symName: __ZNKSt3__16vectorIcNS_9allocatorIcEEE9__end_capB8ue170006Ev, symObjAddr: 0xA768, symBinAddr: 0x10000B230, symSize: 0x28 }
  - { offsetInCU: 0x242D1, offset: 0x242D1, size: 0x8, addend: 0x0, symName: __ZNKSt3__117__compressed_pairIPcNS_9allocatorIcEEE5firstB8ue170006Ev, symObjAddr: 0xA790, symBinAddr: 0x10000B258, symSize: 0x24 }
  - { offsetInCU: 0x242F7, offset: 0x242F7, size: 0x8, addend: 0x0, symName: __ZNKSt3__122__compressed_pair_elemIPcLi0ELb0EE5__getB8ue170006Ev, symObjAddr: 0xA7B4, symBinAddr: 0x10000B27C, symSize: 0x14 }
  - { offsetInCU: 0x24338, offset: 0x24338, size: 0x8, addend: 0x0, symName: __ZNSt3__16vectorIcNS_9allocatorIcEEE21_ConstructTransactionC1B8ue170006ERS3_m, symObjAddr: 0xA7C8, symBinAddr: 0x10000B290, symSize: 0x3C }
  - { offsetInCU: 0x24380, offset: 0x24380, size: 0x8, addend: 0x0, symName: __ZNSt3__16vectorIcNS_9allocatorIcEEE21_ConstructTransactionD1B8ue170006Ev, symObjAddr: 0xA884, symBinAddr: 0x10000B34C, symSize: 0x2C }
  - { offsetInCU: 0x243AA, offset: 0x243AA, size: 0x8, addend: 0x0, symName: __ZNSt3__16vectorIcNS_9allocatorIcEEE21_ConstructTransactionC2B8ue170006ERS3_m, symObjAddr: 0xA8B0, symBinAddr: 0x10000B378, symSize: 0x44 }
  - { offsetInCU: 0x24414, offset: 0x24414, size: 0x8, addend: 0x0, symName: __ZNSt3__14pairIPKcS2_EC1B8ue170006IS2_S2_LPv0EEEOT_OT0_, symObjAddr: 0xAA48, symBinAddr: 0x10000B510, symSize: 0x3C }
  - { offsetInCU: 0x24472, offset: 0x24472, size: 0x8, addend: 0x0, symName: __ZNSt3__14pairIPKcS2_EC2B8ue170006IS2_S2_LPv0EEEOT_OT0_, symObjAddr: 0xAA84, symBinAddr: 0x10000B54C, symSize: 0x34 }
  - { offsetInCU: 0x244D0, offset: 0x244D0, size: 0x8, addend: 0x0, symName: __ZNSt3__118__unwrap_iter_implIPKcLb1EE8__unwrapB8ue170006ES2_, symObjAddr: 0xAAB8, symBinAddr: 0x10000B580, symSize: 0x24 }
  - { offsetInCU: 0x24519, offset: 0x24519, size: 0x8, addend: 0x0, symName: __ZNKSt3__114__copy_trivialclB8ue170006IKccLi0EEENS_4pairIPT_PT0_EES5_S5_S7_, symObjAddr: 0xAC6C, symBinAddr: 0x10000B734, symSize: 0x48 }
  - { offsetInCU: 0x2458D, offset: 0x2458D, size: 0x8, addend: 0x0, symName: __ZNSt3__14pairIPKcPcEC1B8ue170006IRS2_S3_LPv0EEEOT_OT0_, symObjAddr: 0xAE2C, symBinAddr: 0x10000B8F4, symSize: 0x3C }
  - { offsetInCU: 0x245EB, offset: 0x245EB, size: 0x8, addend: 0x0, symName: __ZNSt3__14pairIPKcPcEC2B8ue170006IRS2_S3_LPv0EEEOT_OT0_, symObjAddr: 0xAE68, symBinAddr: 0x10000B930, symSize: 0x34 }
  - { offsetInCU: 0x24649, offset: 0x24649, size: 0x8, addend: 0x0, symName: __ZNSt3__14pairIPKcPcEC1B8ue170006IS2_S3_LPv0EEEOT_OT0_, symObjAddr: 0xAE9C, symBinAddr: 0x10000B964, symSize: 0x3C }
  - { offsetInCU: 0x246A7, offset: 0x246A7, size: 0x8, addend: 0x0, symName: __ZNSt3__14pairIPKcPcEC2B8ue170006IS2_S3_LPv0EEEOT_OT0_, symObjAddr: 0xAED8, symBinAddr: 0x10000B9A0, symSize: 0x34 }
  - { offsetInCU: 0x24705, offset: 0x24705, size: 0x8, addend: 0x0, symName: __ZNSt3__118__unwrap_iter_implIPKcLb1EE8__rewrapB8ue170006ES2_S2_, symObjAddr: 0xAF48, symBinAddr: 0x10000BA10, symSize: 0x48 }
  - { offsetInCU: 0x24736, offset: 0x24736, size: 0x8, addend: 0x0, symName: __ZNSt3__118__unwrap_iter_implIPcLb1EE8__unwrapB8ue170006ES1_, symObjAddr: 0xAF90, symBinAddr: 0x10000BA58, symSize: 0x24 }
  - { offsetInCU: 0x24759, offset: 0x24759, size: 0x8, addend: 0x0, symName: __ZNSt3__118__unwrap_iter_implIPcLb1EE8__rewrapB8ue170006ES1_S1_, symObjAddr: 0xAFB4, symBinAddr: 0x10000BA7C, symSize: 0x48 }
  - { offsetInCU: 0x2478A, offset: 0x2478A, size: 0x8, addend: 0x0, symName: __ZNSt3__16vectorIcNS_9allocatorIcEEE21_ConstructTransactionD2B8ue170006Ev, symObjAddr: 0xAFFC, symBinAddr: 0x10000BAC4, symSize: 0x20 }
  - { offsetInCU: 0x247B4, offset: 0x247B4, size: 0x8, addend: 0x0, symName: __ZNSt3__128__exception_guard_exceptionsINS_6vectorIcNS_9allocatorIcEEE16__destroy_vectorEED2B8ue170006Ev, symObjAddr: 0xB01C, symBinAddr: 0x10000BAE4, symSize: 0x50 }
  - { offsetInCU: 0x247DE, offset: 0x247DE, size: 0x8, addend: 0x0, symName: __ZNSt3__16vectorIcNS_9allocatorIcEEE16__destroy_vectorclB8ue170006Ev, symObjAddr: 0xB06C, symBinAddr: 0x10000BB34, symSize: 0x90 }
  - { offsetInCU: 0x24804, offset: 0x24804, size: 0x8, addend: 0x0, symName: __ZNSt3__16vectorIcNS_9allocatorIcEEE7__clearB8ue170006Ev, symObjAddr: 0xB0FC, symBinAddr: 0x10000BBC4, symSize: 0x28 }
  - { offsetInCU: 0x2482A, offset: 0x2482A, size: 0x8, addend: 0x0, symName: __ZNKSt3__16vectorIcNS_9allocatorIcEEE17__annotate_deleteB8ue170006Ev, symObjAddr: 0xB124, symBinAddr: 0x10000BBEC, symSize: 0xB8 }
  - { offsetInCU: 0x24850, offset: 0x24850, size: 0x8, addend: 0x0, symName: __ZNSt3__116allocator_traitsINS_9allocatorIcEEE10deallocateB8ue170006ERS2_Pcm, symObjAddr: 0xB1DC, symBinAddr: 0x10000BCA4, symSize: 0x34 }
  - { offsetInCU: 0x24892, offset: 0x24892, size: 0x8, addend: 0x0, symName: __ZNSt3__16vectorIcNS_9allocatorIcEEE22__base_destruct_at_endB8ue170006EPc, symObjAddr: 0xB210, symBinAddr: 0x10000BCD8, symSize: 0x8C }
  - { offsetInCU: 0x248D6, offset: 0x248D6, size: 0x8, addend: 0x0, symName: __ZNSt3__116allocator_traitsINS_9allocatorIcEEE7destroyB8ue170006IcvEEvRS2_PT_, symObjAddr: 0xB29C, symBinAddr: 0x10000BD64, symSize: 0x2C }
  - { offsetInCU: 0x24913, offset: 0x24913, size: 0x8, addend: 0x0, symName: __ZNSt3__19allocatorIcE7destroyB8ue170006EPc, symObjAddr: 0xB2C8, symBinAddr: 0x10000BD90, symSize: 0x14 }
  - { offsetInCU: 0x24947, offset: 0x24947, size: 0x8, addend: 0x0, symName: __ZNKSt3__16vectorIcNS_9allocatorIcEEE4sizeB8ue170006Ev, symObjAddr: 0xB2DC, symBinAddr: 0x10000BDA4, symSize: 0x20 }
  - { offsetInCU: 0x2496D, offset: 0x2496D, size: 0x8, addend: 0x0, symName: __ZNSt3__19allocatorIcE10deallocateB8ue170006EPcm, symObjAddr: 0xB2FC, symBinAddr: 0x10000BDC4, symSize: 0x40 }
  - { offsetInCU: 0x249AF, offset: 0x249AF, size: 0x8, addend: 0x0, symName: __ZNSt3__16vectorIcNS_9allocatorIcEEED2B8ue170006Ev, symObjAddr: 0xB33C, symBinAddr: 0x10000BE04, symSize: 0x40 }
  - { offsetInCU: 0x249D9, offset: 0x249D9, size: 0x8, addend: 0x0, symName: __ZNKSt3__112basic_stringIcNS_11char_traitsIcEENS_9allocatorIcEEE21__make_const_iteratorB8ue170006EPKc, symObjAddr: 0xB37C, symBinAddr: 0x10000BE44, symSize: 0x30 }
  - { offsetInCU: 0x24A0E, offset: 0x24A0E, size: 0x8, addend: 0x0, symName: __ZNKSt3__112basic_stringIcNS_11char_traitsIcEENS_9allocatorIcEEE13__get_pointerB8ue170006Ev, symObjAddr: 0xB3AC, symBinAddr: 0x10000BE74, symSize: 0x54 }
  - { offsetInCU: 0x24A34, offset: 0x24A34, size: 0x8, addend: 0x0, symName: __ZNSt3__111__wrap_iterIPKcEC1B8ue170006ES2_, symObjAddr: 0xB400, symBinAddr: 0x10000BEC8, symSize: 0x34 }
  - { offsetInCU: 0x24A6C, offset: 0x24A6C, size: 0x8, addend: 0x0, symName: __ZNSt3__111__wrap_iterIPKcEC2B8ue170006ES2_, symObjAddr: 0xB434, symBinAddr: 0x10000BEFC, symSize: 0x20 }
  - { offsetInCU: 0x24AA4, offset: 0x24AA4, size: 0x8, addend: 0x0, symName: __ZNKSt3__112basic_stringIcNS_11char_traitsIcEENS_9allocatorIcEEE9__is_longB8ue170006Ev, symObjAddr: 0xB454, symBinAddr: 0x10000BF1C, symSize: 0x38 }
  - { offsetInCU: 0x24ACA, offset: 0x24ACA, size: 0x8, addend: 0x0, symName: __ZNKSt3__112basic_stringIcNS_11char_traitsIcEENS_9allocatorIcEEE18__get_long_pointerB8ue170006Ev, symObjAddr: 0xB48C, symBinAddr: 0x10000BF54, symSize: 0x28 }
  - { offsetInCU: 0x24AF0, offset: 0x24AF0, size: 0x8, addend: 0x0, symName: __ZNKSt3__112basic_stringIcNS_11char_traitsIcEENS_9allocatorIcEEE19__get_short_pointerB8ue170006Ev, symObjAddr: 0xB4B4, symBinAddr: 0x10000BF7C, symSize: 0x28 }
  - { offsetInCU: 0x24B16, offset: 0x24B16, size: 0x8, addend: 0x0, symName: __ZNKSt3__117__compressed_pairINS_12basic_stringIcNS_11char_traitsIcEENS_9allocatorIcEEE5__repES5_E5firstB8ue170006Ev, symObjAddr: 0xB4DC, symBinAddr: 0x10000BFA4, symSize: 0x24 }
  - { offsetInCU: 0x24B3C, offset: 0x24B3C, size: 0x8, addend: 0x0, symName: __ZNKSt3__122__compressed_pair_elemINS_12basic_stringIcNS_11char_traitsIcEENS_9allocatorIcEEE5__repELi0ELb0EE5__getB8ue170006Ev, symObjAddr: 0xB500, symBinAddr: 0x10000BFC8, symSize: 0x14 }
  - { offsetInCU: 0x24B62, offset: 0x24B62, size: 0x8, addend: 0x0, symName: __ZNSt3__114pointer_traitsIPKcE10pointer_toB8ue170006ERS1_, symObjAddr: 0xB514, symBinAddr: 0x10000BFDC, symSize: 0x14 }
  - { offsetInCU: 0x24B85, offset: 0x24B85, size: 0x8, addend: 0x0, symName: __ZNKSt3__112basic_stringIcNS_11char_traitsIcEENS_9allocatorIcEEE4sizeB8ue170006Ev, symObjAddr: 0xB528, symBinAddr: 0x10000BFF0, symSize: 0x54 }
  - { offsetInCU: 0x24BAB, offset: 0x24BAB, size: 0x8, addend: 0x0, symName: __ZNKSt3__112basic_stringIcNS_11char_traitsIcEENS_9allocatorIcEEE15__get_long_sizeB8ue170006Ev, symObjAddr: 0xB57C, symBinAddr: 0x10000C044, symSize: 0x28 }
  - { offsetInCU: 0x24BD1, offset: 0x24BD1, size: 0x8, addend: 0x0, symName: __ZNKSt3__112basic_stringIcNS_11char_traitsIcEENS_9allocatorIcEEE16__get_short_sizeB8ue170006Ev, symObjAddr: 0xB5A4, symBinAddr: 0x10000C06C, symSize: 0x34 }
  - { offsetInCU: 0x24BF7, offset: 0x24BF7, size: 0x8, addend: 0x0, symName: __ZNSt3__16vectorIcNS_9allocatorIcEEE11__make_iterB8ue170006EPc, symObjAddr: 0xB5D8, symBinAddr: 0x10000C0A0, symSize: 0x30 }
  - { offsetInCU: 0x24C2C, offset: 0x24C2C, size: 0x8, addend: 0x0, symName: __ZNSt3__111__wrap_iterIPcEC1B8ue170006ES1_, symObjAddr: 0xB608, symBinAddr: 0x10000C0D0, symSize: 0x34 }
  - { offsetInCU: 0x24C64, offset: 0x24C64, size: 0x8, addend: 0x0, symName: __ZNSt3__111__wrap_iterIPcEC2B8ue170006ES1_, symObjAddr: 0xB63C, symBinAddr: 0x10000C104, symSize: 0x20 }
  - { offsetInCU: 0x24C9C, offset: 0x24C9C, size: 0x8, addend: 0x0, symName: __ZNSt3__118__unwrap_iter_implINS_11__wrap_iterIPcEELb1EE8__rewrapB8ue170006ES3_S2_, symObjAddr: 0xB74C, symBinAddr: 0x10000C214, symSize: 0x54 }
  - { offsetInCU: 0x24CCD, offset: 0x24CCD, size: 0x8, addend: 0x0, symName: __ZNKSt3__111__wrap_iterIPcEplB8ue170006El, symObjAddr: 0xB7A0, symBinAddr: 0x10000C268, symSize: 0x3C }
  - { offsetInCU: 0x24D0F, offset: 0x24D0F, size: 0x8, addend: 0x0, symName: __ZNSt3__111__wrap_iterIPcEpLB8ue170006El, symObjAddr: 0xB800, symBinAddr: 0x10000C2C8, symSize: 0x28 }
  - { offsetInCU: 0x24D4E, offset: 0x24D4E, size: 0x8, addend: 0x0, symName: __ZNSt3__119__to_address_helperINS_11__wrap_iterIPcEEvE6__callB8ue170006ERKS3_, symObjAddr: 0xB828, symBinAddr: 0x10000C2F0, symSize: 0x30 }
  - { offsetInCU: 0x24D71, offset: 0x24D71, size: 0x8, addend: 0x0, symName: __ZNSt3__114pointer_traitsINS_11__wrap_iterIPcEEE10to_addressB8ue170006ES3_, symObjAddr: 0xB858, symBinAddr: 0x10000C320, symSize: 0x2C }
  - { offsetInCU: 0x24D94, offset: 0x24D94, size: 0x8, addend: 0x0, symName: __ZNSt3__118__unwrap_iter_implINS_11__wrap_iterIPcEELb1EE8__unwrapB8ue170006ES3_, symObjAddr: 0xB8C4, symBinAddr: 0x10000C38C, symSize: 0x28 }
  - { offsetInCU: 0x24DB7, offset: 0x24DB7, size: 0x8, addend: 0x0, symName: __ZN5DequeIcE10push_frontEc, symObjAddr: 0xB8EC, symBinAddr: 0x10000C3B4, symSize: 0x98 }
  - { offsetInCU: 0x24DEB, offset: 0x24DEB, size: 0x8, addend: 0x0, symName: __ZN5DequeIcE4fullEv, symObjAddr: 0xB984, symBinAddr: 0x10000C44C, symSize: 0x28 }
  - { offsetInCU: 0x24E11, offset: 0x24E11, size: 0x8, addend: 0x0, symName: __ZN5DequeIcE6resizeEv, symObjAddr: 0xB9AC, symBinAddr: 0x10000C474, symSize: 0x190 }
  - { offsetInCU: 0x24E99, offset: 0x24E99, size: 0x8, addend: 0x0, symName: __ZN5DequeIcE9pop_frontEv, symObjAddr: 0xBB3C, symBinAddr: 0x10000C604, symSize: 0x60 }
  - { offsetInCU: 0x24EE4, offset: 0x24EE4, size: 0x8, addend: 0x0, symName: __ZNSt3__112__hash_tableINS_17__hash_value_typeIccEENS_22__unordered_map_hasherIcS2_NS_4hashIcEENS_8equal_toIcEELb1EEENS_21__unordered_map_equalIcS2_S7_S5_Lb1EEENS_9allocatorIS2_EEE25__emplace_unique_key_argsIcJRKNS_21piecewise_construct_tENS_5tupleIJRKcEEENSI_IJEEEEEENS_4pairINS_15__hash_iteratorIPNS_11__hash_nodeIS2_PvEEEEbEERKT_DpOT0_, symObjAddr: 0xBB9C, symBinAddr: 0x10000C664, symSize: 0x4B0 }
  - { offsetInCU: 0x24FEE, offset: 0x24FEE, size: 0x8, addend: 0x0, symName: __ZNKSt3__115__hash_iteratorIPNS_11__hash_nodeINS_17__hash_value_typeIccEEPvEEEptB8ue170006Ev, symObjAddr: 0xC07C, symBinAddr: 0x10000CB44, symSize: 0x30 }
  - { offsetInCU: 0x25014, offset: 0x25014, size: 0x8, addend: 0x0, symName: __ZNSt3__112__hash_tableINS_17__hash_value_typeIccEENS_22__unordered_map_hasherIcS2_NS_4hashIcEENS_8equal_toIcEELb1EEENS_21__unordered_map_equalIcS2_S7_S5_Lb1EEENS_9allocatorIS2_EEE21__construct_node_hashIRKNS_21piecewise_construct_tEJNS_5tupleIJRKcEEENSI_IJEEEEEENS_10unique_ptrINS_11__hash_nodeIS2_PvEENS_22__hash_node_destructorINSB_ISQ_EEEEEEmOT_DpOT0_, symObjAddr: 0xC0AC, symBinAddr: 0x10000CB74, symSize: 0x150 }
  - { offsetInCU: 0x250B0, offset: 0x250B0, size: 0x8, addend: 0x0, symName: __ZNSt3__116allocator_traitsINS_9allocatorINS_11__hash_nodeINS_17__hash_value_typeIccEEPvEEEEE9constructB8ue170006INS_4pairIKccEEJRKNS_21piecewise_construct_tENS_5tupleIJRSB_EEENSG_IJEEEEvEEvRS7_PT_DpOT0_, symObjAddr: 0xC1FC, symBinAddr: 0x10000CCC4, symSize: 0x44 }
  - { offsetInCU: 0x2512F, offset: 0x2512F, size: 0x8, addend: 0x0, symName: __ZNSt3__19allocatorINS_11__hash_nodeINS_17__hash_value_typeIccEEPvEEE9constructB8ue170006INS_4pairIKccEEJRKNS_21piecewise_construct_tENS_5tupleIJRS9_EEENSE_IJEEEEEEvPT_DpOT0_, symObjAddr: 0xC240, symBinAddr: 0x10000CD08, symSize: 0x44 }
  - { offsetInCU: 0x251AB, offset: 0x251AB, size: 0x8, addend: 0x0, symName: __ZNSt3__14pairIKccEC1B8ue170006IJRS1_EJEEENS_21piecewise_construct_tENS_5tupleIJDpT_EEENS6_IJDpT0_EEE, symObjAddr: 0xC284, symBinAddr: 0x10000CD4C, symSize: 0x44 }
  - { offsetInCU: 0x25212, offset: 0x25212, size: 0x8, addend: 0x0, symName: __ZNSt3__14pairIKccEC1B8ue170006IJRS1_EJEJLm0EEJEEENS_21piecewise_construct_tERNS_5tupleIJDpT_EEERNS6_IJDpT0_EEENS_15__tuple_indicesIJXspT1_EEEENSF_IJXspT2_EEEE, symObjAddr: 0xC2C8, symBinAddr: 0x10000CD90, symSize: 0x3C }
  - { offsetInCU: 0x2529F, offset: 0x2529F, size: 0x8, addend: 0x0, symName: __ZNSt3__14pairIKccEC2B8ue170006IJRS1_EJEJLm0EEJEEENS_21piecewise_construct_tERNS_5tupleIJDpT_EEERNS6_IJDpT0_EEENS_15__tuple_indicesIJXspT1_EEEENSF_IJXspT2_EEEE, symObjAddr: 0xC304, symBinAddr: 0x10000CDCC, symSize: 0x48 }
  - { offsetInCU: 0x2532C, offset: 0x2532C, size: 0x8, addend: 0x0, symName: __ZNSt3__112__tuple_leafILm0ERKcLb0EE3getB8ue170006Ev, symObjAddr: 0xC370, symBinAddr: 0x10000CE38, symSize: 0x18 }
  - { offsetInCU: 0x25352, offset: 0x25352, size: 0x8, addend: 0x0, symName: __ZNSt3__15tupleIJRKcEEC1B8ue170006INS_4_AndELi0EEES2_, symObjAddr: 0xC388, symBinAddr: 0x10000CE50, symSize: 0x34 }
  - { offsetInCU: 0x2539A, offset: 0x2539A, size: 0x8, addend: 0x0, symName: __ZNSt3__15tupleIJRKcEEC2B8ue170006INS_4_AndELi0EEES2_, symObjAddr: 0xC3BC, symBinAddr: 0x10000CE84, symSize: 0x34 }
  - { offsetInCU: 0x253E2, offset: 0x253E2, size: 0x8, addend: 0x0, symName: __ZNSt3__112__tuple_implINS_15__tuple_indicesIJLm0EEEEJRKcEEC1B8ue170006IJLm0EEJS4_EJEJEJS4_EEENS1_IJXspT_EEEENS_13__tuple_typesIJDpT0_EEENS1_IJXspT1_EEEENS8_IJDpT2_EEEDpOT3_, symObjAddr: 0xC3F0, symBinAddr: 0x10000CEB8, symSize: 0x34 }
  - { offsetInCU: 0x25473, offset: 0x25473, size: 0x8, addend: 0x0, symName: __ZNSt3__112__tuple_implINS_15__tuple_indicesIJLm0EEEEJRKcEEC2B8ue170006IJLm0EEJS4_EJEJEJS4_EEENS1_IJXspT_EEEENS_13__tuple_typesIJDpT0_EEENS1_IJXspT1_EEEENS8_IJDpT2_EEEDpOT3_, symObjAddr: 0xC424, symBinAddr: 0x10000CEEC, symSize: 0x34 }
  - { offsetInCU: 0x25504, offset: 0x25504, size: 0x8, addend: 0x0, symName: __ZNSt3__112__tuple_leafILm0ERKcLb0EEC2B8ue170006IS2_vEEOT_, symObjAddr: 0xC458, symBinAddr: 0x10000CF20, symSize: 0x20 }
  - { offsetInCU: 0x25547, offset: 0x25547, size: 0x8, addend: 0x0, symName: __ZNSt3__114pointer_traitsIPNS_17__hash_value_typeIccEEE10pointer_toB8ue170006ERS2_, symObjAddr: 0xC478, symBinAddr: 0x10000CF40, symSize: 0x14 }
  - { offsetInCU: 0x2556A, offset: 0x2556A, size: 0x8, addend: 0x0, symName: __ZN5DequeIcE10array_sizeEv, symObjAddr: 0xC48C, symBinAddr: 0x10000CF54, symSize: 0x18 }
  - { offsetInCU: 0x25590, offset: 0x25590, size: 0x8, addend: 0x0, symName: __ZNSt3__113unordered_mapIcmNS_4hashIcEENS_8equal_toIcEENS_9allocatorINS_4pairIKcmEEEEEC2ESt16initializer_listIS8_E, symObjAddr: 0xC4A4, symBinAddr: 0x10000CF6C, symSize: 0x8C }
  - { offsetInCU: 0x255CB, offset: 0x255CB, size: 0x8, addend: 0x0, symName: __ZNSt3__112__hash_tableINS_17__hash_value_typeIcmEENS_22__unordered_map_hasherIcS2_NS_4hashIcEENS_8equal_toIcEELb1EEENS_21__unordered_map_equalIcS2_S7_S5_Lb1EEENS_9allocatorIS2_EEEC1Ev, symObjAddr: 0xC530, symBinAddr: 0x10000CFF8, symSize: 0x2C }
  - { offsetInCU: 0x255F7, offset: 0x255F7, size: 0x8, addend: 0x0, symName: __ZNSt3__113unordered_mapIcmNS_4hashIcEENS_8equal_toIcEENS_9allocatorINS_4pairIKcmEEEEE6insertIPKS8_EEvT_SE_, symObjAddr: 0xC55C, symBinAddr: 0x10000D024, symSize: 0x70 }
  - { offsetInCU: 0x25646, offset: 0x25646, size: 0x8, addend: 0x0, symName: __ZNKSt16initializer_listINSt3__14pairIKcmEEE5beginB8ue170006Ev, symObjAddr: 0xC5CC, symBinAddr: 0x10000D094, symSize: 0x18 }
  - { offsetInCU: 0x2566C, offset: 0x2566C, size: 0x8, addend: 0x0, symName: __ZNKSt16initializer_listINSt3__14pairIKcmEEE3endB8ue170006Ev, symObjAddr: 0xC5E4, symBinAddr: 0x10000D0AC, symSize: 0x20 }
  - { offsetInCU: 0x25692, offset: 0x25692, size: 0x8, addend: 0x0, symName: __ZNSt3__112__hash_tableINS_17__hash_value_typeIcmEENS_22__unordered_map_hasherIcS2_NS_4hashIcEENS_8equal_toIcEELb1EEENS_21__unordered_map_equalIcS2_S7_S5_Lb1EEENS_9allocatorIS2_EEED1Ev, symObjAddr: 0xC604, symBinAddr: 0x10000D0CC, symSize: 0x2C }
  - { offsetInCU: 0x256BE, offset: 0x256BE, size: 0x8, addend: 0x0, symName: __ZNSt3__112__hash_tableINS_17__hash_value_typeIcmEENS_22__unordered_map_hasherIcS2_NS_4hashIcEENS_8equal_toIcEELb1EEENS_21__unordered_map_equalIcS2_S7_S5_Lb1EEENS_9allocatorIS2_EEEC2Ev, symObjAddr: 0xC630, symBinAddr: 0x10000D0F8, symSize: 0x7C }
  - { offsetInCU: 0x256EA, offset: 0x256EA, size: 0x8, addend: 0x0, symName: __ZNSt3__110unique_ptrIA_PNS_16__hash_node_baseIPNS_11__hash_nodeINS_17__hash_value_typeIcmEEPvEEEENS_25__bucket_list_deallocatorINS_9allocatorIS9_EEEEEC1B8ue170006ILb1EvEEv, symObjAddr: 0xC6AC, symBinAddr: 0x10000D174, symSize: 0x2C }
  - { offsetInCU: 0x2571F, offset: 0x2571F, size: 0x8, addend: 0x0, symName: __ZNSt3__117__compressed_pairINS_16__hash_node_baseIPNS_11__hash_nodeINS_17__hash_value_typeIcmEEPvEEEENS_9allocatorIS6_EEEC1B8ue170006ILb1EvEEv, symObjAddr: 0xC6D8, symBinAddr: 0x10000D1A0, symSize: 0x2C }
  - { offsetInCU: 0x25754, offset: 0x25754, size: 0x8, addend: 0x0, symName: __ZNSt3__117__compressed_pairImNS_22__unordered_map_hasherIcNS_17__hash_value_typeIcmEENS_4hashIcEENS_8equal_toIcEELb1EEEEC1B8ue170006IiNS_18__default_init_tagEEEOT_OT0_, symObjAddr: 0xC704, symBinAddr: 0x10000D1CC, symSize: 0x3C }
  - { offsetInCU: 0x257AC, offset: 0x257AC, size: 0x8, addend: 0x0, symName: __ZNSt3__117__compressed_pairIfNS_21__unordered_map_equalIcNS_17__hash_value_typeIcmEENS_8equal_toIcEENS_4hashIcEELb1EEEEC1B8ue170006IfNS_18__default_init_tagEEEOT_OT0_, symObjAddr: 0xC740, symBinAddr: 0x10000D208, symSize: 0x3C }
  - { offsetInCU: 0x25804, offset: 0x25804, size: 0x8, addend: 0x0, symName: __ZNSt3__110unique_ptrIA_PNS_16__hash_node_baseIPNS_11__hash_nodeINS_17__hash_value_typeIcmEEPvEEEENS_25__bucket_list_deallocatorINS_9allocatorIS9_EEEEEC2B8ue170006ILb1EvEEv, symObjAddr: 0xC77C, symBinAddr: 0x10000D244, symSize: 0x3C }
  - { offsetInCU: 0x25839, offset: 0x25839, size: 0x8, addend: 0x0, symName: __ZNSt3__117__compressed_pairIPPNS_16__hash_node_baseIPNS_11__hash_nodeINS_17__hash_value_typeIcmEEPvEEEENS_25__bucket_list_deallocatorINS_9allocatorIS9_EEEEEC1B8ue170006INS_16__value_init_tagESH_EEOT_OT0_, symObjAddr: 0xC7B8, symBinAddr: 0x10000D280, symSize: 0x3C }
  - { offsetInCU: 0x25891, offset: 0x25891, size: 0x8, addend: 0x0, symName: __ZNSt3__117__compressed_pairIPPNS_16__hash_node_baseIPNS_11__hash_nodeINS_17__hash_value_typeIcmEEPvEEEENS_25__bucket_list_deallocatorINS_9allocatorIS9_EEEEEC2B8ue170006INS_16__value_init_tagESH_EEOT_OT0_, symObjAddr: 0xC7F4, symBinAddr: 0x10000D2BC, symSize: 0x40 }
  - { offsetInCU: 0x258E9, offset: 0x258E9, size: 0x8, addend: 0x0, symName: __ZNSt3__122__compressed_pair_elemIPPNS_16__hash_node_baseIPNS_11__hash_nodeINS_17__hash_value_typeIcmEEPvEEEELi0ELb0EEC2B8ue170006ENS_16__value_init_tagE, symObjAddr: 0xC834, symBinAddr: 0x10000D2FC, symSize: 0x18 }
  - { offsetInCU: 0x2591D, offset: 0x2591D, size: 0x8, addend: 0x0, symName: __ZNSt3__122__compressed_pair_elemINS_25__bucket_list_deallocatorINS_9allocatorIPNS_16__hash_node_baseIPNS_11__hash_nodeINS_17__hash_value_typeIcmEEPvEEEEEEEELi1ELb0EEC2B8ue170006ENS_16__value_init_tagE, symObjAddr: 0xC84C, symBinAddr: 0x10000D314, symSize: 0x2C }
  - { offsetInCU: 0x25951, offset: 0x25951, size: 0x8, addend: 0x0, symName: __ZNSt3__125__bucket_list_deallocatorINS_9allocatorIPNS_16__hash_node_baseIPNS_11__hash_nodeINS_17__hash_value_typeIcmEEPvEEEEEEEC1B8ue170006Ev, symObjAddr: 0xC878, symBinAddr: 0x10000D340, symSize: 0x2C }
  - { offsetInCU: 0x2597B, offset: 0x2597B, size: 0x8, addend: 0x0, symName: __ZNSt3__125__bucket_list_deallocatorINS_9allocatorIPNS_16__hash_node_baseIPNS_11__hash_nodeINS_17__hash_value_typeIcmEEPvEEEEEEEC2B8ue170006Ev, symObjAddr: 0xC8A4, symBinAddr: 0x10000D36C, symSize: 0x40 }
  - { offsetInCU: 0x259A5, offset: 0x259A5, size: 0x8, addend: 0x0, symName: __ZNSt3__117__compressed_pairImNS_9allocatorIPNS_16__hash_node_baseIPNS_11__hash_nodeINS_17__hash_value_typeIcmEEPvEEEEEEEC1B8ue170006IiNS_18__default_init_tagEEEOT_OT0_, symObjAddr: 0xC8E4, symBinAddr: 0x10000D3AC, symSize: 0x3C }
  - { offsetInCU: 0x259FD, offset: 0x259FD, size: 0x8, addend: 0x0, symName: __ZNSt3__117__compressed_pairImNS_9allocatorIPNS_16__hash_node_baseIPNS_11__hash_nodeINS_17__hash_value_typeIcmEEPvEEEEEEEC2B8ue170006IiNS_18__default_init_tagEEEOT_OT0_, symObjAddr: 0xC920, symBinAddr: 0x10000D3E8, symSize: 0x40 }
  - { offsetInCU: 0x25A55, offset: 0x25A55, size: 0x8, addend: 0x0, symName: __ZNSt3__122__compressed_pair_elemINS_9allocatorIPNS_16__hash_node_baseIPNS_11__hash_nodeINS_17__hash_value_typeIcmEEPvEEEEEELi1ELb1EEC2B8ue170006ENS_18__default_init_tagE, symObjAddr: 0xC960, symBinAddr: 0x10000D428, symSize: 0x2C }
  - { offsetInCU: 0x25A89, offset: 0x25A89, size: 0x8, addend: 0x0, symName: __ZNSt3__19allocatorIPNS_16__hash_node_baseIPNS_11__hash_nodeINS_17__hash_value_typeIcmEEPvEEEEEC2B8ue170006Ev, symObjAddr: 0xC98C, symBinAddr: 0x10000D454, symSize: 0x2C }
  - { offsetInCU: 0x25AB3, offset: 0x25AB3, size: 0x8, addend: 0x0, symName: __ZNSt3__116__non_trivial_ifILb1ENS_9allocatorIPNS_16__hash_node_baseIPNS_11__hash_nodeINS_17__hash_value_typeIcmEEPvEEEEEEEC2B8ue170006Ev, symObjAddr: 0xC9B8, symBinAddr: 0x10000D480, symSize: 0x14 }
  - { offsetInCU: 0x25ADD, offset: 0x25ADD, size: 0x8, addend: 0x0, symName: __ZNSt3__117__compressed_pairINS_16__hash_node_baseIPNS_11__hash_nodeINS_17__hash_value_typeIcmEEPvEEEENS_9allocatorIS6_EEEC2B8ue170006ILb1EvEEv, symObjAddr: 0xC9CC, symBinAddr: 0x10000D494, symSize: 0x34 }
  - { offsetInCU: 0x25B12, offset: 0x25B12, size: 0x8, addend: 0x0, symName: __ZNSt3__122__compressed_pair_elemINS_16__hash_node_baseIPNS_11__hash_nodeINS_17__hash_value_typeIcmEEPvEEEELi0ELb0EEC2B8ue170006ENS_16__value_init_tagE, symObjAddr: 0xCA00, symBinAddr: 0x10000D4C8, symSize: 0x2C }
  - { offsetInCU: 0x25B46, offset: 0x25B46, size: 0x8, addend: 0x0, symName: __ZNSt3__122__compressed_pair_elemINS_9allocatorINS_11__hash_nodeINS_17__hash_value_typeIcmEEPvEEEELi1ELb1EEC2B8ue170006ENS_16__value_init_tagE, symObjAddr: 0xCA2C, symBinAddr: 0x10000D4F4, symSize: 0x2C }
  - { offsetInCU: 0x25B7A, offset: 0x25B7A, size: 0x8, addend: 0x0, symName: __ZNSt3__116__hash_node_baseIPNS_11__hash_nodeINS_17__hash_value_typeIcmEEPvEEEC1B8ue170006Ev, symObjAddr: 0xCA58, symBinAddr: 0x10000D520, symSize: 0x2C }
  - { offsetInCU: 0x25BA4, offset: 0x25BA4, size: 0x8, addend: 0x0, symName: __ZNSt3__116__hash_node_baseIPNS_11__hash_nodeINS_17__hash_value_typeIcmEEPvEEEC2B8ue170006Ev, symObjAddr: 0xCA84, symBinAddr: 0x10000D54C, symSize: 0x18 }
  - { offsetInCU: 0x25BCE, offset: 0x25BCE, size: 0x8, addend: 0x0, symName: __ZNSt3__19allocatorINS_11__hash_nodeINS_17__hash_value_typeIcmEEPvEEEC2B8ue170006Ev, symObjAddr: 0xCA9C, symBinAddr: 0x10000D564, symSize: 0x2C }
  - { offsetInCU: 0x25BF8, offset: 0x25BF8, size: 0x8, addend: 0x0, symName: __ZNSt3__116__non_trivial_ifILb1ENS_9allocatorINS_11__hash_nodeINS_17__hash_value_typeIcmEEPvEEEEEC2B8ue170006Ev, symObjAddr: 0xCAC8, symBinAddr: 0x10000D590, symSize: 0x14 }
  - { offsetInCU: 0x25C22, offset: 0x25C22, size: 0x8, addend: 0x0, symName: __ZNSt3__117__compressed_pairImNS_22__unordered_map_hasherIcNS_17__hash_value_typeIcmEENS_4hashIcEENS_8equal_toIcEELb1EEEEC2B8ue170006IiNS_18__default_init_tagEEEOT_OT0_, symObjAddr: 0xCADC, symBinAddr: 0x10000D5A4, symSize: 0x40 }
  - { offsetInCU: 0x25C7A, offset: 0x25C7A, size: 0x8, addend: 0x0, symName: __ZNSt3__122__compressed_pair_elemINS_22__unordered_map_hasherIcNS_17__hash_value_typeIcmEENS_4hashIcEENS_8equal_toIcEELb1EEELi1ELb1EEC2B8ue170006ENS_18__default_init_tagE, symObjAddr: 0xCB1C, symBinAddr: 0x10000D5E4, symSize: 0x2C }
  - { offsetInCU: 0x25CAE, offset: 0x25CAE, size: 0x8, addend: 0x0, symName: __ZNSt3__122__unordered_map_hasherIcNS_17__hash_value_typeIcmEENS_4hashIcEENS_8equal_toIcEELb1EEC2B8ue170006Ev, symObjAddr: 0xCB48, symBinAddr: 0x10000D610, symSize: 0x14 }
  - { offsetInCU: 0x25CD8, offset: 0x25CD8, size: 0x8, addend: 0x0, symName: __ZNSt3__117__compressed_pairIfNS_21__unordered_map_equalIcNS_17__hash_value_typeIcmEENS_8equal_toIcEENS_4hashIcEELb1EEEEC2B8ue170006IfNS_18__default_init_tagEEEOT_OT0_, symObjAddr: 0xCB5C, symBinAddr: 0x10000D624, symSize: 0x40 }
  - { offsetInCU: 0x25D30, offset: 0x25D30, size: 0x8, addend: 0x0, symName: __ZNSt3__122__compressed_pair_elemINS_21__unordered_map_equalIcNS_17__hash_value_typeIcmEENS_8equal_toIcEENS_4hashIcEELb1EEELi1ELb1EEC2B8ue170006ENS_18__default_init_tagE, symObjAddr: 0xCB9C, symBinAddr: 0x10000D664, symSize: 0x2C }
  - { offsetInCU: 0x25D64, offset: 0x25D64, size: 0x8, addend: 0x0, symName: __ZNSt3__121__unordered_map_equalIcNS_17__hash_value_typeIcmEENS_8equal_toIcEENS_4hashIcEELb1EEC2B8ue170006Ev, symObjAddr: 0xCBC8, symBinAddr: 0x10000D690, symSize: 0x14 }
  - { offsetInCU: 0x25D8E, offset: 0x25D8E, size: 0x8, addend: 0x0, symName: __ZNSt3__112__hash_tableINS_17__hash_value_typeIcmEENS_22__unordered_map_hasherIcS2_NS_4hashIcEENS_8equal_toIcEELb1EEENS_21__unordered_map_equalIcS2_S7_S5_Lb1EEENS_9allocatorIS2_EEE15__insert_uniqueB8ue170006ERKNS_4pairIKcmEE, symObjAddr: 0xCBDC, symBinAddr: 0x10000D6A4, symSize: 0x50 }
  - { offsetInCU: 0x25DC3, offset: 0x25DC3, size: 0x8, addend: 0x0, symName: __ZNSt3__112__hash_tableINS_17__hash_value_typeIcmEENS_22__unordered_map_hasherIcS2_NS_4hashIcEENS_8equal_toIcEELb1EEENS_21__unordered_map_equalIcS2_S7_S5_Lb1EEENS_9allocatorIS2_EEE25__emplace_unique_key_argsIcJRKNS_4pairIKcmEEEEENSF_INS_15__hash_iteratorIPNS_11__hash_nodeIS2_PvEEEEbEERKT_DpOT0_, symObjAddr: 0xCC2C, symBinAddr: 0x10000D6F4, symSize: 0x4BC }
  - { offsetInCU: 0x25EA3, offset: 0x25EA3, size: 0x8, addend: 0x0, symName: __ZNSt3__122__hash_key_value_typesINS_17__hash_value_typeIcmEEE9__get_keyB8ue170006ERKNS_4pairIKcmEE, symObjAddr: 0xD0E8, symBinAddr: 0x10000DBB0, symSize: 0x14 }
  - { offsetInCU: 0x25EC6, offset: 0x25EC6, size: 0x8, addend: 0x0, symName: __ZNSt3__112__hash_tableINS_17__hash_value_typeIcmEENS_22__unordered_map_hasherIcS2_NS_4hashIcEENS_8equal_toIcEELb1EEENS_21__unordered_map_equalIcS2_S7_S5_Lb1EEENS_9allocatorIS2_EEE13hash_functionB8ue170006Ev, symObjAddr: 0xD0FC, symBinAddr: 0x10000DBC4, symSize: 0x28 }
  - { offsetInCU: 0x25EEC, offset: 0x25EEC, size: 0x8, addend: 0x0, symName: __ZNKSt3__122__unordered_map_hasherIcNS_17__hash_value_typeIcmEENS_4hashIcEENS_8equal_toIcEELb1EEclB8ue170006ERKc, symObjAddr: 0xD124, symBinAddr: 0x10000DBEC, symSize: 0x30 }
  - { offsetInCU: 0x25F21, offset: 0x25F21, size: 0x8, addend: 0x0, symName: __ZNKSt3__112__hash_tableINS_17__hash_value_typeIcmEENS_22__unordered_map_hasherIcS2_NS_4hashIcEENS_8equal_toIcEELb1EEENS_21__unordered_map_equalIcS2_S7_S5_Lb1EEENS_9allocatorIS2_EEE12bucket_countB8ue170006Ev, symObjAddr: 0xD154, symBinAddr: 0x10000DC1C, symSize: 0x28 }
  - { offsetInCU: 0x25F47, offset: 0x25F47, size: 0x8, addend: 0x0, symName: __ZNKSt3__110unique_ptrIA_PNS_16__hash_node_baseIPNS_11__hash_nodeINS_17__hash_value_typeIcmEEPvEEEENS_25__bucket_list_deallocatorINS_9allocatorIS9_EEEEEixB8ue170006Em, symObjAddr: 0xD17C, symBinAddr: 0x10000DC44, symSize: 0x34 }
  - { offsetInCU: 0x25F7C, offset: 0x25F7C, size: 0x8, addend: 0x0, symName: __ZNKSt3__116__hash_node_baseIPNS_11__hash_nodeINS_17__hash_value_typeIcmEEPvEEE6__hashB8ue170006Ev, symObjAddr: 0xD1B0, symBinAddr: 0x10000DC78, symSize: 0x18 }
  - { offsetInCU: 0x25FA2, offset: 0x25FA2, size: 0x8, addend: 0x0, symName: __ZNSt3__112__hash_tableINS_17__hash_value_typeIcmEENS_22__unordered_map_hasherIcS2_NS_4hashIcEENS_8equal_toIcEELb1EEENS_21__unordered_map_equalIcS2_S7_S5_Lb1EEENS_9allocatorIS2_EEE6key_eqB8ue170006Ev, symObjAddr: 0xD1C8, symBinAddr: 0x10000DC90, symSize: 0x28 }
  - { offsetInCU: 0x25FC8, offset: 0x25FC8, size: 0x8, addend: 0x0, symName: __ZNKSt3__121__unordered_map_equalIcNS_17__hash_value_typeIcmEENS_8equal_toIcEENS_4hashIcEELb1EEclB8ue170006ERKS2_RKc, symObjAddr: 0xD1F0, symBinAddr: 0x10000DCB8, symSize: 0x48 }
  - { offsetInCU: 0x2600C, offset: 0x2600C, size: 0x8, addend: 0x0, symName: __ZNSt3__116__hash_node_baseIPNS_11__hash_nodeINS_17__hash_value_typeIcmEEPvEEE8__upcastB8ue170006Ev, symObjAddr: 0xD238, symBinAddr: 0x10000DD00, symSize: 0x24 }
  - { offsetInCU: 0x26032, offset: 0x26032, size: 0x8, addend: 0x0, symName: __ZNSt3__112__hash_tableINS_17__hash_value_typeIcmEENS_22__unordered_map_hasherIcS2_NS_4hashIcEENS_8equal_toIcEELb1EEENS_21__unordered_map_equalIcS2_S7_S5_Lb1EEENS_9allocatorIS2_EEE21__construct_node_hashIRKNS_4pairIKcmEEJEEENS_10unique_ptrINS_11__hash_nodeIS2_PvEENS_22__hash_node_destructorINSB_ISN_EEEEEEmOT_DpOT0_, symObjAddr: 0xD25C, symBinAddr: 0x10000DD24, symSize: 0x140 }
  - { offsetInCU: 0x260A5, offset: 0x260A5, size: 0x8, addend: 0x0, symName: __ZNSt3__112__hash_tableINS_17__hash_value_typeIcmEENS_22__unordered_map_hasherIcS2_NS_4hashIcEENS_8equal_toIcEELb1EEENS_21__unordered_map_equalIcS2_S7_S5_Lb1EEENS_9allocatorIS2_EEE4sizeB8ue170006Ev, symObjAddr: 0xD39C, symBinAddr: 0x10000DE64, symSize: 0x28 }
  - { offsetInCU: 0x260CB, offset: 0x260CB, size: 0x8, addend: 0x0, symName: __ZNSt3__112__hash_tableINS_17__hash_value_typeIcmEENS_22__unordered_map_hasherIcS2_NS_4hashIcEENS_8equal_toIcEELb1EEENS_21__unordered_map_equalIcS2_S7_S5_Lb1EEENS_9allocatorIS2_EEE15max_load_factorB8ue170006Ev, symObjAddr: 0xD3C4, symBinAddr: 0x10000DE8C, symSize: 0x28 }
  - { offsetInCU: 0x260F1, offset: 0x260F1, size: 0x8, addend: 0x0, symName: __ZNSt3__112__hash_tableINS_17__hash_value_typeIcmEENS_22__unordered_map_hasherIcS2_NS_4hashIcEENS_8equal_toIcEELb1EEENS_21__unordered_map_equalIcS2_S7_S5_Lb1EEENS_9allocatorIS2_EEE15__rehash_uniqueB8ue170006Em, symObjAddr: 0xD3EC, symBinAddr: 0x10000DEB4, symSize: 0x2C }
  - { offsetInCU: 0x26126, offset: 0x26126, size: 0x8, addend: 0x0, symName: __ZNSt3__117__compressed_pairINS_16__hash_node_baseIPNS_11__hash_nodeINS_17__hash_value_typeIcmEEPvEEEENS_9allocatorIS6_EEE5firstB8ue170006Ev, symObjAddr: 0xD418, symBinAddr: 0x10000DEE0, symSize: 0x24 }
  - { offsetInCU: 0x2614C, offset: 0x2614C, size: 0x8, addend: 0x0, symName: __ZNSt3__116__hash_node_baseIPNS_11__hash_nodeINS_17__hash_value_typeIcmEEPvEEE5__ptrB8ue170006Ev, symObjAddr: 0xD43C, symBinAddr: 0x10000DF04, symSize: 0x24 }
  - { offsetInCU: 0x26172, offset: 0x26172, size: 0x8, addend: 0x0, symName: __ZNKSt3__110unique_ptrINS_11__hash_nodeINS_17__hash_value_typeIcmEEPvEENS_22__hash_node_destructorINS_9allocatorIS5_EEEEEptB8ue170006Ev, symObjAddr: 0xD460, symBinAddr: 0x10000DF28, symSize: 0x28 }
  - { offsetInCU: 0x26198, offset: 0x26198, size: 0x8, addend: 0x0, symName: __ZNKSt3__110unique_ptrINS_11__hash_nodeINS_17__hash_value_typeIcmEEPvEENS_22__hash_node_destructorINS_9allocatorIS5_EEEEE3getB8ue170006Ev, symObjAddr: 0xD488, symBinAddr: 0x10000DF50, symSize: 0x28 }
  - { offsetInCU: 0x261BE, offset: 0x261BE, size: 0x8, addend: 0x0, symName: __ZNSt3__110unique_ptrINS_11__hash_nodeINS_17__hash_value_typeIcmEEPvEENS_22__hash_node_destructorINS_9allocatorIS5_EEEEE7releaseB8ue170006Ev, symObjAddr: 0xD4B0, symBinAddr: 0x10000DF78, symSize: 0x44 }
  - { offsetInCU: 0x261F3, offset: 0x261F3, size: 0x8, addend: 0x0, symName: __ZNSt3__110unique_ptrINS_11__hash_nodeINS_17__hash_value_typeIcmEEPvEENS_22__hash_node_destructorINS_9allocatorIS5_EEEEED1B8ue170006Ev, symObjAddr: 0xD4F4, symBinAddr: 0x10000DFBC, symSize: 0x2C }
  - { offsetInCU: 0x2621D, offset: 0x2621D, size: 0x8, addend: 0x0, symName: __ZNSt3__115__hash_iteratorIPNS_11__hash_nodeINS_17__hash_value_typeIcmEEPvEEEC1B8ue170006EPNS_16__hash_node_baseIS6_EE, symObjAddr: 0xD520, symBinAddr: 0x10000DFE8, symSize: 0x34 }
  - { offsetInCU: 0x2625C, offset: 0x2625C, size: 0x8, addend: 0x0, symName: __ZNSt3__14pairINS_15__hash_iteratorIPNS_11__hash_nodeINS_17__hash_value_typeIcmEEPvEEEEbEC1B8ue170006IS8_RbLS5_0EEEOT_OT0_, symObjAddr: 0xD554, symBinAddr: 0x10000E01C, symSize: 0x3C }
  - { offsetInCU: 0x262BA, offset: 0x262BA, size: 0x8, addend: 0x0, symName: __ZNSt3__117__compressed_pairImNS_22__unordered_map_hasherIcNS_17__hash_value_typeIcmEENS_4hashIcEENS_8equal_toIcEELb1EEEE6secondB8ue170006Ev, symObjAddr: 0xD590, symBinAddr: 0x10000E058, symSize: 0x24 }
  - { offsetInCU: 0x262E0, offset: 0x262E0, size: 0x8, addend: 0x0, symName: __ZNSt3__122__compressed_pair_elemINS_22__unordered_map_hasherIcNS_17__hash_value_typeIcmEENS_4hashIcEENS_8equal_toIcEELb1EEELi1ELb1EE5__getB8ue170006Ev, symObjAddr: 0xD5B4, symBinAddr: 0x10000E07C, symSize: 0x14 }
  - { offsetInCU: 0x26306, offset: 0x26306, size: 0x8, addend: 0x0, symName: __ZNKSt3__110unique_ptrIA_PNS_16__hash_node_baseIPNS_11__hash_nodeINS_17__hash_value_typeIcmEEPvEEEENS_25__bucket_list_deallocatorINS_9allocatorIS9_EEEEE11get_deleterB8ue170006Ev, symObjAddr: 0xD5C8, symBinAddr: 0x10000E090, symSize: 0x24 }
  - { offsetInCU: 0x2632C, offset: 0x2632C, size: 0x8, addend: 0x0, symName: __ZNKSt3__125__bucket_list_deallocatorINS_9allocatorIPNS_16__hash_node_baseIPNS_11__hash_nodeINS_17__hash_value_typeIcmEEPvEEEEEEE4sizeB8ue170006Ev, symObjAddr: 0xD5EC, symBinAddr: 0x10000E0B4, symSize: 0x28 }
  - { offsetInCU: 0x26352, offset: 0x26352, size: 0x8, addend: 0x0, symName: __ZNKSt3__117__compressed_pairIPPNS_16__hash_node_baseIPNS_11__hash_nodeINS_17__hash_value_typeIcmEEPvEEEENS_25__bucket_list_deallocatorINS_9allocatorIS9_EEEEE6secondB8ue170006Ev, symObjAddr: 0xD614, symBinAddr: 0x10000E0DC, symSize: 0x28 }
  - { offsetInCU: 0x26378, offset: 0x26378, size: 0x8, addend: 0x0, symName: __ZNKSt3__122__compressed_pair_elemINS_25__bucket_list_deallocatorINS_9allocatorIPNS_16__hash_node_baseIPNS_11__hash_nodeINS_17__hash_value_typeIcmEEPvEEEEEEEELi1ELb0EE5__getB8ue170006Ev, symObjAddr: 0xD63C, symBinAddr: 0x10000E104, symSize: 0x14 }
  - { offsetInCU: 0x2639E, offset: 0x2639E, size: 0x8, addend: 0x0, symName: __ZNKSt3__117__compressed_pairImNS_9allocatorIPNS_16__hash_node_baseIPNS_11__hash_nodeINS_17__hash_value_typeIcmEEPvEEEEEEE5firstB8ue170006Ev, symObjAddr: 0xD650, symBinAddr: 0x10000E118, symSize: 0x24 }
  - { offsetInCU: 0x263C4, offset: 0x263C4, size: 0x8, addend: 0x0, symName: __ZNKSt3__117__compressed_pairIPPNS_16__hash_node_baseIPNS_11__hash_nodeINS_17__hash_value_typeIcmEEPvEEEENS_25__bucket_list_deallocatorINS_9allocatorIS9_EEEEE5firstB8ue170006Ev, symObjAddr: 0xD674, symBinAddr: 0x10000E13C, symSize: 0x24 }
  - { offsetInCU: 0x263EA, offset: 0x263EA, size: 0x8, addend: 0x0, symName: __ZNKSt3__122__compressed_pair_elemIPPNS_16__hash_node_baseIPNS_11__hash_nodeINS_17__hash_value_typeIcmEEPvEEEELi0ELb0EE5__getB8ue170006Ev, symObjAddr: 0xD698, symBinAddr: 0x10000E160, symSize: 0x14 }
  - { offsetInCU: 0x26410, offset: 0x26410, size: 0x8, addend: 0x0, symName: __ZNSt3__117__compressed_pairIfNS_21__unordered_map_equalIcNS_17__hash_value_typeIcmEENS_8equal_toIcEENS_4hashIcEELb1EEEE6secondB8ue170006Ev, symObjAddr: 0xD6AC, symBinAddr: 0x10000E174, symSize: 0x24 }
  - { offsetInCU: 0x26436, offset: 0x26436, size: 0x8, addend: 0x0, symName: __ZNSt3__122__compressed_pair_elemINS_21__unordered_map_equalIcNS_17__hash_value_typeIcmEENS_8equal_toIcEENS_4hashIcEELb1EEELi1ELb1EE5__getB8ue170006Ev, symObjAddr: 0xD6D0, symBinAddr: 0x10000E198, symSize: 0x14 }
  - { offsetInCU: 0x2645C, offset: 0x2645C, size: 0x8, addend: 0x0, symName: __ZNKSt3__117__hash_value_typeIcmE11__get_valueB8ue170006Ev, symObjAddr: 0xD6E4, symBinAddr: 0x10000E1AC, symSize: 0x24 }
  - { offsetInCU: 0x26482, offset: 0x26482, size: 0x8, addend: 0x0, symName: __ZNSt3__114pointer_traitsIPNS_16__hash_node_baseIPNS_11__hash_nodeINS_17__hash_value_typeIcmEEPvEEEEE10pointer_toB8ue170006ERS8_, symObjAddr: 0xD740, symBinAddr: 0x10000E208, symSize: 0x14 }
  - { offsetInCU: 0x264A5, offset: 0x264A5, size: 0x8, addend: 0x0, symName: __ZNSt3__112__hash_tableINS_17__hash_value_typeIcmEENS_22__unordered_map_hasherIcS2_NS_4hashIcEENS_8equal_toIcEELb1EEENS_21__unordered_map_equalIcS2_S7_S5_Lb1EEENS_9allocatorIS2_EEE12__node_allocB8ue170006Ev, symObjAddr: 0xD754, symBinAddr: 0x10000E21C, symSize: 0x28 }
  - { offsetInCU: 0x264CB, offset: 0x264CB, size: 0x8, addend: 0x0, symName: __ZNSt3__116allocator_traitsINS_9allocatorINS_11__hash_nodeINS_17__hash_value_typeIcmEEPvEEEEE8allocateB8ue170006ERS7_m, symObjAddr: 0xD77C, symBinAddr: 0x10000E244, symSize: 0x2C }
  - { offsetInCU: 0x264FE, offset: 0x264FE, size: 0x8, addend: 0x0, symName: __ZNSt3__122__hash_node_destructorINS_9allocatorINS_11__hash_nodeINS_17__hash_value_typeIcmEEPvEEEEEC1B8ue170006ERS7_b, symObjAddr: 0xD7A8, symBinAddr: 0x10000E270, symSize: 0x48 }
  - { offsetInCU: 0x2654C, offset: 0x2654C, size: 0x8, addend: 0x0, symName: __ZNSt3__110unique_ptrINS_11__hash_nodeINS_17__hash_value_typeIcmEEPvEENS_22__hash_node_destructorINS_9allocatorIS5_EEEEEC1B8ue170006ILb1EvEEPS5_NS_16__dependent_typeINS_27__unique_ptr_deleter_sfinaeIS9_EEXT_EE20__good_rval_ref_typeE, symObjAddr: 0xD7F0, symBinAddr: 0x10000E2B8, symSize: 0x3C }
  - { offsetInCU: 0x2659D, offset: 0x2659D, size: 0x8, addend: 0x0, symName: __ZNSt3__116allocator_traitsINS_9allocatorINS_11__hash_nodeINS_17__hash_value_typeIcmEEPvEEEEE9constructB8ue170006INS_4pairIKcmEEJRKSC_EvEEvRS7_PT_DpOT0_, symObjAddr: 0xD82C, symBinAddr: 0x10000E2F4, symSize: 0x34 }
  - { offsetInCU: 0x265F4, offset: 0x265F4, size: 0x8, addend: 0x0, symName: __ZNSt3__122__hash_key_value_typesINS_17__hash_value_typeIcmEEE9__get_ptrB8ue170006ERS2_, symObjAddr: 0xD860, symBinAddr: 0x10000E328, symSize: 0x24 }
  - { offsetInCU: 0x26617, offset: 0x26617, size: 0x8, addend: 0x0, symName: __ZNSt3__110unique_ptrINS_11__hash_nodeINS_17__hash_value_typeIcmEEPvEENS_22__hash_node_destructorINS_9allocatorIS5_EEEEE11get_deleterB8ue170006Ev, symObjAddr: 0xD884, symBinAddr: 0x10000E34C, symSize: 0x24 }
  - { offsetInCU: 0x2663D, offset: 0x2663D, size: 0x8, addend: 0x0, symName: __ZNSt3__117__compressed_pairINS_16__hash_node_baseIPNS_11__hash_nodeINS_17__hash_value_typeIcmEEPvEEEENS_9allocatorIS6_EEE6secondB8ue170006Ev, symObjAddr: 0xD8A8, symBinAddr: 0x10000E370, symSize: 0x24 }
  - { offsetInCU: 0x26663, offset: 0x26663, size: 0x8, addend: 0x0, symName: __ZNSt3__122__compressed_pair_elemINS_9allocatorINS_11__hash_nodeINS_17__hash_value_typeIcmEEPvEEEELi1ELb1EE5__getB8ue170006Ev, symObjAddr: 0xD8CC, symBinAddr: 0x10000E394, symSize: 0x14 }
  - { offsetInCU: 0x26689, offset: 0x26689, size: 0x8, addend: 0x0, symName: __ZNSt3__19allocatorINS_11__hash_nodeINS_17__hash_value_typeIcmEEPvEEE8allocateB8ue170006Em, symObjAddr: 0xD8E0, symBinAddr: 0x10000E3A8, symSize: 0x58 }
  - { offsetInCU: 0x266C8, offset: 0x266C8, size: 0x8, addend: 0x0, symName: __ZNSt3__116allocator_traitsINS_9allocatorINS_11__hash_nodeINS_17__hash_value_typeIcmEEPvEEEEE8max_sizeB8ue170006IS7_vEEmRKS7_, symObjAddr: 0xD938, symBinAddr: 0x10000E400, symSize: 0x24 }
  - { offsetInCU: 0x266F6, offset: 0x266F6, size: 0x8, addend: 0x0, symName: __ZNKSt3__19allocatorINS_11__hash_nodeINS_17__hash_value_typeIcmEEPvEEE8max_sizeB8ue170006Ev, symObjAddr: 0xD95C, symBinAddr: 0x10000E424, symSize: 0x14 }
  - { offsetInCU: 0x2671C, offset: 0x2671C, size: 0x8, addend: 0x0, symName: __ZNSt3__122__hash_node_destructorINS_9allocatorINS_11__hash_nodeINS_17__hash_value_typeIcmEEPvEEEEEC2B8ue170006ERS7_b, symObjAddr: 0xD970, symBinAddr: 0x10000E438, symSize: 0x38 }
  - { offsetInCU: 0x26764, offset: 0x26764, size: 0x8, addend: 0x0, symName: __ZNSt3__110unique_ptrINS_11__hash_nodeINS_17__hash_value_typeIcmEEPvEENS_22__hash_node_destructorINS_9allocatorIS5_EEEEEC2B8ue170006ILb1EvEEPS5_NS_16__dependent_typeINS_27__unique_ptr_deleter_sfinaeIS9_EEXT_EE20__good_rval_ref_typeE, symObjAddr: 0xD9A8, symBinAddr: 0x10000E470, symSize: 0x48 }
  - { offsetInCU: 0x267B5, offset: 0x267B5, size: 0x8, addend: 0x0, symName: __ZNSt3__117__compressed_pairIPNS_11__hash_nodeINS_17__hash_value_typeIcmEEPvEENS_22__hash_node_destructorINS_9allocatorIS5_EEEEEC1B8ue170006IRS6_SA_EEOT_OT0_, symObjAddr: 0xD9F0, symBinAddr: 0x10000E4B8, symSize: 0x3C }
  - { offsetInCU: 0x2680D, offset: 0x2680D, size: 0x8, addend: 0x0, symName: __ZNSt3__117__compressed_pairIPNS_11__hash_nodeINS_17__hash_value_typeIcmEEPvEENS_22__hash_node_destructorINS_9allocatorIS5_EEEEEC2B8ue170006IRS6_SA_EEOT_OT0_, symObjAddr: 0xDA2C, symBinAddr: 0x10000E4F4, symSize: 0x48 }
  - { offsetInCU: 0x26865, offset: 0x26865, size: 0x8, addend: 0x0, symName: __ZNSt3__122__compressed_pair_elemIPNS_11__hash_nodeINS_17__hash_value_typeIcmEEPvEELi0ELb0EEC2B8ue170006IRS6_vEEOT_, symObjAddr: 0xDA74, symBinAddr: 0x10000E53C, symSize: 0x24 }
  - { offsetInCU: 0x268A7, offset: 0x268A7, size: 0x8, addend: 0x0, symName: __ZNSt3__122__compressed_pair_elemINS_22__hash_node_destructorINS_9allocatorINS_11__hash_nodeINS_17__hash_value_typeIcmEEPvEEEEEELi1ELb0EEC2B8ue170006IS9_vEEOT_, symObjAddr: 0xDA98, symBinAddr: 0x10000E560, symSize: 0x24 }
  - { offsetInCU: 0x268E9, offset: 0x268E9, size: 0x8, addend: 0x0, symName: __ZNSt3__19allocatorINS_11__hash_nodeINS_17__hash_value_typeIcmEEPvEEE9constructB8ue170006INS_4pairIKcmEEJRKSA_EEEvPT_DpOT0_, symObjAddr: 0xDABC, symBinAddr: 0x10000E584, symSize: 0x28 }
  - { offsetInCU: 0x2693F, offset: 0x2693F, size: 0x8, addend: 0x0, symName: __ZNSt3__117__hash_value_typeIcmE11__get_valueB8ue170006Ev, symObjAddr: 0xDAE4, symBinAddr: 0x10000E5AC, symSize: 0x24 }
  - { offsetInCU: 0x26965, offset: 0x26965, size: 0x8, addend: 0x0, symName: __ZNSt3__117__compressed_pairIPNS_11__hash_nodeINS_17__hash_value_typeIcmEEPvEENS_22__hash_node_destructorINS_9allocatorIS5_EEEEE6secondB8ue170006Ev, symObjAddr: 0xDB40, symBinAddr: 0x10000E608, symSize: 0x28 }
  - { offsetInCU: 0x2698B, offset: 0x2698B, size: 0x8, addend: 0x0, symName: __ZNSt3__122__compressed_pair_elemINS_22__hash_node_destructorINS_9allocatorINS_11__hash_nodeINS_17__hash_value_typeIcmEEPvEEEEEELi1ELb0EE5__getB8ue170006Ev, symObjAddr: 0xDB68, symBinAddr: 0x10000E630, symSize: 0x14 }
  - { offsetInCU: 0x269B1, offset: 0x269B1, size: 0x8, addend: 0x0, symName: __ZNSt3__117__compressed_pairImNS_22__unordered_map_hasherIcNS_17__hash_value_typeIcmEENS_4hashIcEENS_8equal_toIcEELb1EEEE5firstB8ue170006Ev, symObjAddr: 0xDB7C, symBinAddr: 0x10000E644, symSize: 0x24 }
  - { offsetInCU: 0x269D7, offset: 0x269D7, size: 0x8, addend: 0x0, symName: __ZNSt3__117__compressed_pairIfNS_21__unordered_map_equalIcNS_17__hash_value_typeIcmEENS_8equal_toIcEENS_4hashIcEELb1EEEE5firstB8ue170006Ev, symObjAddr: 0xDBA0, symBinAddr: 0x10000E668, symSize: 0x24 }
  - { offsetInCU: 0x269FD, offset: 0x269FD, size: 0x8, addend: 0x0, symName: __ZNSt3__112__hash_tableINS_17__hash_value_typeIcmEENS_22__unordered_map_hasherIcS2_NS_4hashIcEENS_8equal_toIcEELb1EEENS_21__unordered_map_equalIcS2_S7_S5_Lb1EEENS_9allocatorIS2_EEE8__rehashILb1EEEvm, symObjAddr: 0xDBC4, symBinAddr: 0x10000E68C, symSize: 0x1A8 }
  - { offsetInCU: 0x26A4D, offset: 0x26A4D, size: 0x8, addend: 0x0, symName: __ZNSt3__112__hash_tableINS_17__hash_value_typeIcmEENS_22__unordered_map_hasherIcS2_NS_4hashIcEENS_8equal_toIcEELb1EEENS_21__unordered_map_equalIcS2_S7_S5_Lb1EEENS_9allocatorIS2_EEE11__do_rehashILb1EEEvm, symObjAddr: 0xDD6C, symBinAddr: 0x10000E834, symSize: 0x288 }
  - { offsetInCU: 0x26B30, offset: 0x26B30, size: 0x8, addend: 0x0, symName: __ZNSt3__110unique_ptrIA_PNS_16__hash_node_baseIPNS_11__hash_nodeINS_17__hash_value_typeIcmEEPvEEEENS_25__bucket_list_deallocatorINS_9allocatorIS9_EEEEE11get_deleterB8ue170006Ev, symObjAddr: 0xDFF4, symBinAddr: 0x10000EABC, symSize: 0x24 }
  - { offsetInCU: 0x26B56, offset: 0x26B56, size: 0x8, addend: 0x0, symName: __ZNSt3__125__bucket_list_deallocatorINS_9allocatorIPNS_16__hash_node_baseIPNS_11__hash_nodeINS_17__hash_value_typeIcmEEPvEEEEEEE7__allocB8ue170006Ev, symObjAddr: 0xE018, symBinAddr: 0x10000EAE0, symSize: 0x24 }
  - { offsetInCU: 0x26B7C, offset: 0x26B7C, size: 0x8, addend: 0x0, symName: __ZNSt3__110unique_ptrIA_PNS_16__hash_node_baseIPNS_11__hash_nodeINS_17__hash_value_typeIcmEEPvEEEENS_25__bucket_list_deallocatorINS_9allocatorIS9_EEEEE5resetB8ue170006IPS9_EENS_9enable_ifIXsr28_CheckArrayPointerConversionIT_EE5valueEvE4typeESJ_, symObjAddr: 0xE03C, symBinAddr: 0x10000EB04, symSize: 0x78 }
  - { offsetInCU: 0x26BC9, offset: 0x26BC9, size: 0x8, addend: 0x0, symName: __ZNSt3__116allocator_traitsINS_9allocatorIPNS_16__hash_node_baseIPNS_11__hash_nodeINS_17__hash_value_typeIcmEEPvEEEEEEE8allocateB8ue170006ERSB_m, symObjAddr: 0xE0B4, symBinAddr: 0x10000EB7C, symSize: 0x2C }
  - { offsetInCU: 0x26BFC, offset: 0x26BFC, size: 0x8, addend: 0x0, symName: __ZNSt3__125__bucket_list_deallocatorINS_9allocatorIPNS_16__hash_node_baseIPNS_11__hash_nodeINS_17__hash_value_typeIcmEEPvEEEEEEE4sizeB8ue170006Ev, symObjAddr: 0xE0E0, symBinAddr: 0x10000EBA8, symSize: 0x24 }
  - { offsetInCU: 0x26C22, offset: 0x26C22, size: 0x8, addend: 0x0, symName: __ZNSt3__117__compressed_pairIPPNS_16__hash_node_baseIPNS_11__hash_nodeINS_17__hash_value_typeIcmEEPvEEEENS_25__bucket_list_deallocatorINS_9allocatorIS9_EEEEE6secondB8ue170006Ev, symObjAddr: 0xE104, symBinAddr: 0x10000EBCC, symSize: 0x28 }
  - { offsetInCU: 0x26C48, offset: 0x26C48, size: 0x8, addend: 0x0, symName: __ZNSt3__122__compressed_pair_elemINS_25__bucket_list_deallocatorINS_9allocatorIPNS_16__hash_node_baseIPNS_11__hash_nodeINS_17__hash_value_typeIcmEEPvEEEEEEEELi1ELb0EE5__getB8ue170006Ev, symObjAddr: 0xE12C, symBinAddr: 0x10000EBF4, symSize: 0x14 }
  - { offsetInCU: 0x26C6E, offset: 0x26C6E, size: 0x8, addend: 0x0, symName: __ZNSt3__117__compressed_pairImNS_9allocatorIPNS_16__hash_node_baseIPNS_11__hash_nodeINS_17__hash_value_typeIcmEEPvEEEEEEE6secondB8ue170006Ev, symObjAddr: 0xE140, symBinAddr: 0x10000EC08, symSize: 0x24 }
  - { offsetInCU: 0x26C94, offset: 0x26C94, size: 0x8, addend: 0x0, symName: __ZNSt3__122__compressed_pair_elemINS_9allocatorIPNS_16__hash_node_baseIPNS_11__hash_nodeINS_17__hash_value_typeIcmEEPvEEEEEELi1ELb1EE5__getB8ue170006Ev, symObjAddr: 0xE164, symBinAddr: 0x10000EC2C, symSize: 0x14 }
  - { offsetInCU: 0x26CBA, offset: 0x26CBA, size: 0x8, addend: 0x0, symName: __ZNSt3__117__compressed_pairIPPNS_16__hash_node_baseIPNS_11__hash_nodeINS_17__hash_value_typeIcmEEPvEEEENS_25__bucket_list_deallocatorINS_9allocatorIS9_EEEEE5firstB8ue170006Ev, symObjAddr: 0xE178, symBinAddr: 0x10000EC40, symSize: 0x24 }
  - { offsetInCU: 0x26CE0, offset: 0x26CE0, size: 0x8, addend: 0x0, symName: __ZNSt3__125__bucket_list_deallocatorINS_9allocatorIPNS_16__hash_node_baseIPNS_11__hash_nodeINS_17__hash_value_typeIcmEEPvEEEEEEEclB8ue170006EPSA_, symObjAddr: 0xE19C, symBinAddr: 0x10000EC64, symSize: 0x58 }
  - { offsetInCU: 0x26D15, offset: 0x26D15, size: 0x8, addend: 0x0, symName: __ZNSt3__122__compressed_pair_elemIPPNS_16__hash_node_baseIPNS_11__hash_nodeINS_17__hash_value_typeIcmEEPvEEEELi0ELb0EE5__getB8ue170006Ev, symObjAddr: 0xE1F4, symBinAddr: 0x10000ECBC, symSize: 0x14 }
  - { offsetInCU: 0x26D3B, offset: 0x26D3B, size: 0x8, addend: 0x0, symName: __ZNSt3__116allocator_traitsINS_9allocatorIPNS_16__hash_node_baseIPNS_11__hash_nodeINS_17__hash_value_typeIcmEEPvEEEEEEE10deallocateB8ue170006ERSB_PSA_m, symObjAddr: 0xE208, symBinAddr: 0x10000ECD0, symSize: 0x34 }
  - { offsetInCU: 0x26D7D, offset: 0x26D7D, size: 0x8, addend: 0x0, symName: __ZNSt3__19allocatorIPNS_16__hash_node_baseIPNS_11__hash_nodeINS_17__hash_value_typeIcmEEPvEEEEE10deallocateB8ue170006EPS9_m, symObjAddr: 0xE23C, symBinAddr: 0x10000ED04, symSize: 0x40 }
  - { offsetInCU: 0x26DBF, offset: 0x26DBF, size: 0x8, addend: 0x0, symName: __ZNSt3__19allocatorIPNS_16__hash_node_baseIPNS_11__hash_nodeINS_17__hash_value_typeIcmEEPvEEEEE8allocateB8ue170006Em, symObjAddr: 0xE27C, symBinAddr: 0x10000ED44, symSize: 0x58 }
  - { offsetInCU: 0x26DFE, offset: 0x26DFE, size: 0x8, addend: 0x0, symName: __ZNSt3__116allocator_traitsINS_9allocatorIPNS_16__hash_node_baseIPNS_11__hash_nodeINS_17__hash_value_typeIcmEEPvEEEEEEE8max_sizeB8ue170006ISB_vEEmRKSB_, symObjAddr: 0xE2D4, symBinAddr: 0x10000ED9C, symSize: 0x24 }
  - { offsetInCU: 0x26E2C, offset: 0x26E2C, size: 0x8, addend: 0x0, symName: __ZNKSt3__19allocatorIPNS_16__hash_node_baseIPNS_11__hash_nodeINS_17__hash_value_typeIcmEEPvEEEEE8max_sizeB8ue170006Ev, symObjAddr: 0xE2F8, symBinAddr: 0x10000EDC0, symSize: 0x14 }
  - { offsetInCU: 0x26E52, offset: 0x26E52, size: 0x8, addend: 0x0, symName: __ZNSt3__117__compressed_pairImNS_9allocatorIPNS_16__hash_node_baseIPNS_11__hash_nodeINS_17__hash_value_typeIcmEEPvEEEEEEE5firstB8ue170006Ev, symObjAddr: 0xE30C, symBinAddr: 0x10000EDD4, symSize: 0x24 }
  - { offsetInCU: 0x26E78, offset: 0x26E78, size: 0x8, addend: 0x0, symName: __ZNSt3__122__compressed_pair_elemINS_16__hash_node_baseIPNS_11__hash_nodeINS_17__hash_value_typeIcmEEPvEEEELi0ELb0EE5__getB8ue170006Ev, symObjAddr: 0xE330, symBinAddr: 0x10000EDF8, symSize: 0x14 }
  - { offsetInCU: 0x26E9E, offset: 0x26E9E, size: 0x8, addend: 0x0, symName: __ZNKSt3__117__compressed_pairIPNS_11__hash_nodeINS_17__hash_value_typeIcmEEPvEENS_22__hash_node_destructorINS_9allocatorIS5_EEEEE5firstB8ue170006Ev, symObjAddr: 0xE344, symBinAddr: 0x10000EE0C, symSize: 0x24 }
  - { offsetInCU: 0x26EC4, offset: 0x26EC4, size: 0x8, addend: 0x0, symName: __ZNKSt3__122__compressed_pair_elemIPNS_11__hash_nodeINS_17__hash_value_typeIcmEEPvEELi0ELb0EE5__getB8ue170006Ev, symObjAddr: 0xE368, symBinAddr: 0x10000EE30, symSize: 0x14 }
  - { offsetInCU: 0x26EEA, offset: 0x26EEA, size: 0x8, addend: 0x0, symName: __ZNSt3__117__compressed_pairIPNS_11__hash_nodeINS_17__hash_value_typeIcmEEPvEENS_22__hash_node_destructorINS_9allocatorIS5_EEEEE5firstB8ue170006Ev, symObjAddr: 0xE37C, symBinAddr: 0x10000EE44, symSize: 0x24 }
  - { offsetInCU: 0x26F10, offset: 0x26F10, size: 0x8, addend: 0x0, symName: __ZNSt3__122__compressed_pair_elemIPNS_11__hash_nodeINS_17__hash_value_typeIcmEEPvEELi0ELb0EE5__getB8ue170006Ev, symObjAddr: 0xE3A0, symBinAddr: 0x10000EE68, symSize: 0x14 }
  - { offsetInCU: 0x26F36, offset: 0x26F36, size: 0x8, addend: 0x0, symName: __ZNSt3__110unique_ptrINS_11__hash_nodeINS_17__hash_value_typeIcmEEPvEENS_22__hash_node_destructorINS_9allocatorIS5_EEEEED2B8ue170006Ev, symObjAddr: 0xE3B4, symBinAddr: 0x10000EE7C, symSize: 0x30 }
  - { offsetInCU: 0x26F60, offset: 0x26F60, size: 0x8, addend: 0x0, symName: __ZNSt3__110unique_ptrINS_11__hash_nodeINS_17__hash_value_typeIcmEEPvEENS_22__hash_node_destructorINS_9allocatorIS5_EEEEE5resetB8ue170006EPS5_, symObjAddr: 0xE3E4, symBinAddr: 0x10000EEAC, symSize: 0x78 }
  - { offsetInCU: 0x26FA4, offset: 0x26FA4, size: 0x8, addend: 0x0, symName: __ZNSt3__122__hash_node_destructorINS_9allocatorINS_11__hash_nodeINS_17__hash_value_typeIcmEEPvEEEEEclB8ue170006EPS6_, symObjAddr: 0xE45C, symBinAddr: 0x10000EF24, symSize: 0x98 }
  - { offsetInCU: 0x26FD9, offset: 0x26FD9, size: 0x8, addend: 0x0, symName: __ZNSt3__116allocator_traitsINS_9allocatorINS_11__hash_nodeINS_17__hash_value_typeIcmEEPvEEEEE7destroyB8ue170006INS_4pairIKcmEEvvEEvRS7_PT_, symObjAddr: 0xE4F4, symBinAddr: 0x10000EFBC, symSize: 0x14 }
  - { offsetInCU: 0x27013, offset: 0x27013, size: 0x8, addend: 0x0, symName: __ZNSt3__116allocator_traitsINS_9allocatorINS_11__hash_nodeINS_17__hash_value_typeIcmEEPvEEEEE10deallocateB8ue170006ERS7_PS6_m, symObjAddr: 0xE508, symBinAddr: 0x10000EFD0, symSize: 0x34 }
  - { offsetInCU: 0x27055, offset: 0x27055, size: 0x8, addend: 0x0, symName: __ZNSt3__19allocatorINS_11__hash_nodeINS_17__hash_value_typeIcmEEPvEEE10deallocateB8ue170006EPS5_m, symObjAddr: 0xE53C, symBinAddr: 0x10000F004, symSize: 0x40 }
  - { offsetInCU: 0x27097, offset: 0x27097, size: 0x8, addend: 0x0, symName: __ZNSt3__115__hash_iteratorIPNS_11__hash_nodeINS_17__hash_value_typeIcmEEPvEEEC2B8ue170006EPNS_16__hash_node_baseIS6_EE, symObjAddr: 0xE57C, symBinAddr: 0x10000F044, symSize: 0x20 }
  - { offsetInCU: 0x270D0, offset: 0x270D0, size: 0x8, addend: 0x0, symName: __ZNSt3__14pairINS_15__hash_iteratorIPNS_11__hash_nodeINS_17__hash_value_typeIcmEEPvEEEEbEC2B8ue170006IS8_RbLS5_0EEEOT_OT0_, symObjAddr: 0xE59C, symBinAddr: 0x10000F064, symSize: 0x38 }
  - { offsetInCU: 0x2712E, offset: 0x2712E, size: 0x8, addend: 0x0, symName: __ZNSt3__112__hash_tableINS_17__hash_value_typeIcmEENS_22__unordered_map_hasherIcS2_NS_4hashIcEENS_8equal_toIcEELb1EEENS_21__unordered_map_equalIcS2_S7_S5_Lb1EEENS_9allocatorIS2_EEED2Ev, symObjAddr: 0xE5D4, symBinAddr: 0x10000F09C, symSize: 0x48 }
  - { offsetInCU: 0x2715A, offset: 0x2715A, size: 0x8, addend: 0x0, symName: __ZNSt3__112__hash_tableINS_17__hash_value_typeIcmEENS_22__unordered_map_hasherIcS2_NS_4hashIcEENS_8equal_toIcEELb1EEENS_21__unordered_map_equalIcS2_S7_S5_Lb1EEENS_9allocatorIS2_EEE17__deallocate_nodeEPNS_16__hash_node_baseIPNS_11__hash_nodeIS2_PvEEEE, symObjAddr: 0xE61C, symBinAddr: 0x10000F0E4, symSize: 0xA4 }
  - { offsetInCU: 0x271C4, offset: 0x271C4, size: 0x8, addend: 0x0, symName: __ZNSt3__110unique_ptrIA_PNS_16__hash_node_baseIPNS_11__hash_nodeINS_17__hash_value_typeIcmEEPvEEEENS_25__bucket_list_deallocatorINS_9allocatorIS9_EEEEED1B8ue170006Ev, symObjAddr: 0xE6C0, symBinAddr: 0x10000F188, symSize: 0x2C }
  - { offsetInCU: 0x271EE, offset: 0x271EE, size: 0x8, addend: 0x0, symName: __ZNSt3__110unique_ptrIA_PNS_16__hash_node_baseIPNS_11__hash_nodeINS_17__hash_value_typeIcmEEPvEEEENS_25__bucket_list_deallocatorINS_9allocatorIS9_EEEEED2B8ue170006Ev, symObjAddr: 0xE6EC, symBinAddr: 0x10000F1B4, symSize: 0x30 }
  - { offsetInCU: 0x27218, offset: 0x27218, size: 0x8, addend: 0x0, symName: __ZNSt3__110unique_ptrIA_PNS_16__hash_node_baseIPNS_11__hash_nodeINS_17__hash_value_typeIcmEEPvEEEENS_25__bucket_list_deallocatorINS_9allocatorIS9_EEEEE5resetB8ue170006EDn, symObjAddr: 0xE71C, symBinAddr: 0x10000F1E4, symSize: 0x6C }
  - { offsetInCU: 0x27258, offset: 0x27258, size: 0x8, addend: 0x0, symName: __ZNSt3__113unordered_mapIcmNS_4hashIcEENS_8equal_toIcEENS_9allocatorINS_4pairIKcmEEEEED2B8ue170006Ev, symObjAddr: 0xE788, symBinAddr: 0x10000F250, symSize: 0x2C }
  - { offsetInCU: 0x27282, offset: 0x27282, size: 0x8, addend: 0x0, symName: __ZNSt3__112basic_stringIcNS_11char_traitsIcEENS_9allocatorIcEEEC2B8ue170006Ev, symObjAddr: 0xE7B4, symBinAddr: 0x10000F27C, symSize: 0x48 }
  - { offsetInCU: 0x272AC, offset: 0x272AC, size: 0x8, addend: 0x0, symName: __ZNSt3__117__compressed_pairINS_12basic_stringIcNS_11char_traitsIcEENS_9allocatorIcEEE5__repES5_EC1B8ue170006INS_18__default_init_tagESA_EEOT_OT0_, symObjAddr: 0xE7FC, symBinAddr: 0x10000F2C4, symSize: 0x3C }
  - { offsetInCU: 0x27304, offset: 0x27304, size: 0x8, addend: 0x0, symName: __ZNSt3__112basic_stringIcNS_11char_traitsIcEENS_9allocatorIcEEE14__default_initB8ue170006Ev, symObjAddr: 0xE838, symBinAddr: 0x10000F300, symSize: 0x40 }
  - { offsetInCU: 0x2732A, offset: 0x2732A, size: 0x8, addend: 0x0, symName: __ZNSt3__117__compressed_pairINS_12basic_stringIcNS_11char_traitsIcEENS_9allocatorIcEEE5__repES5_EC2B8ue170006INS_18__default_init_tagESA_EEOT_OT0_, symObjAddr: 0xE878, symBinAddr: 0x10000F340, symSize: 0x3C }
  - { offsetInCU: 0x27382, offset: 0x27382, size: 0x8, addend: 0x0, symName: __ZNSt3__122__compressed_pair_elemINS_12basic_stringIcNS_11char_traitsIcEENS_9allocatorIcEEE5__repELi0ELb0EEC2B8ue170006ENS_18__default_init_tagE, symObjAddr: 0xE8B4, symBinAddr: 0x10000F37C, symSize: 0x14 }
  - { offsetInCU: 0x273B6, offset: 0x273B6, size: 0x8, addend: 0x0, symName: __ZNSt3__117__compressed_pairINS_12basic_stringIcNS_11char_traitsIcEENS_9allocatorIcEEE5__repES5_E5firstB8ue170006Ev, symObjAddr: 0xE8C8, symBinAddr: 0x10000F390, symSize: 0x24 }
  - { offsetInCU: 0x273DC, offset: 0x273DC, size: 0x8, addend: 0x0, symName: __ZNSt3__122__compressed_pair_elemINS_12basic_stringIcNS_11char_traitsIcEENS_9allocatorIcEEE5__repELi0ELb0EE5__getB8ue170006Ev, symObjAddr: 0xE8EC, symBinAddr: 0x10000F3B4, symSize: 0x14 }
  - { offsetInCU: 0x27402, offset: 0x27402, size: 0x8, addend: 0x0, symName: __ZN5DequeIcE10show_frontEv, symObjAddr: 0xE900, symBinAddr: 0x10000F3C8, symSize: 0x24 }
  - { offsetInCU: 0x27428, offset: 0x27428, size: 0x8, addend: 0x0, symName: __ZNSt3__112__hash_tableINS_17__hash_value_typeIcmEENS_22__unordered_map_hasherIcS2_NS_4hashIcEENS_8equal_toIcEELb1EEENS_21__unordered_map_equalIcS2_S7_S5_Lb1EEENS_9allocatorIS2_EEE4findIcEENS_15__hash_iteratorIPNS_11__hash_nodeIS2_PvEEEERKT_, symObjAddr: 0xE924, symBinAddr: 0x10000F3EC, symSize: 0x1B0 }
  - { offsetInCU: 0x274B2, offset: 0x274B2, size: 0x8, addend: 0x0, symName: __ZNSt3__119__hash_map_iteratorINS_15__hash_iteratorIPNS_11__hash_nodeINS_17__hash_value_typeIcmEEPvEEEEEC1B8ue170006ES8_, symObjAddr: 0xEAD4, symBinAddr: 0x10000F59C, symSize: 0x34 }
  - { offsetInCU: 0x274EB, offset: 0x274EB, size: 0x8, addend: 0x0, symName: __ZNSt3__112__hash_tableINS_17__hash_value_typeIcmEENS_22__unordered_map_hasherIcS2_NS_4hashIcEENS_8equal_toIcEELb1EEENS_21__unordered_map_equalIcS2_S7_S5_Lb1EEENS_9allocatorIS2_EEE3endEv, symObjAddr: 0xEB08, symBinAddr: 0x10000F5D0, symSize: 0x2C }
  - { offsetInCU: 0x27513, offset: 0x27513, size: 0x8, addend: 0x0, symName: __ZNSt3__119__hash_map_iteratorINS_15__hash_iteratorIPNS_11__hash_nodeINS_17__hash_value_typeIcmEEPvEEEEEC2B8ue170006ES8_, symObjAddr: 0xEB34, symBinAddr: 0x10000F5FC, symSize: 0x20 }
  - { offsetInCU: 0x2754C, offset: 0x2754C, size: 0x8, addend: 0x0, symName: __ZNSt3__112__hash_tableINS_17__hash_value_typeIcmEENS_22__unordered_map_hasherIcS2_NS_4hashIcEENS_8equal_toIcEELb1EEENS_21__unordered_map_equalIcS2_S7_S5_Lb1EEENS_9allocatorIS2_EEE25__emplace_unique_key_argsIcJRKNS_21piecewise_construct_tENS_5tupleIJRKcEEENSI_IJEEEEEENS_4pairINS_15__hash_iteratorIPNS_11__hash_nodeIS2_PvEEEEbEERKT_DpOT0_, symObjAddr: 0xEBB8, symBinAddr: 0x10000F680, symSize: 0x4B0 }
  - { offsetInCU: 0x27656, offset: 0x27656, size: 0x8, addend: 0x0, symName: __ZNKSt3__115__hash_iteratorIPNS_11__hash_nodeINS_17__hash_value_typeIcmEEPvEEEptB8ue170006Ev, symObjAddr: 0xF068, symBinAddr: 0x10000FB30, symSize: 0x30 }
  - { offsetInCU: 0x2767C, offset: 0x2767C, size: 0x8, addend: 0x0, symName: __ZNSt3__112__hash_tableINS_17__hash_value_typeIcmEENS_22__unordered_map_hasherIcS2_NS_4hashIcEENS_8equal_toIcEELb1EEENS_21__unordered_map_equalIcS2_S7_S5_Lb1EEENS_9allocatorIS2_EEE21__construct_node_hashIRKNS_21piecewise_construct_tEJNS_5tupleIJRKcEEENSI_IJEEEEEENS_10unique_ptrINS_11__hash_nodeIS2_PvEENS_22__hash_node_destructorINSB_ISQ_EEEEEEmOT_DpOT0_, symObjAddr: 0xF098, symBinAddr: 0x10000FB60, symSize: 0x150 }
  - { offsetInCU: 0x27718, offset: 0x27718, size: 0x8, addend: 0x0, symName: __ZNSt3__116allocator_traitsINS_9allocatorINS_11__hash_nodeINS_17__hash_value_typeIcmEEPvEEEEE9constructB8ue170006INS_4pairIKcmEEJRKNS_21piecewise_construct_tENS_5tupleIJRSB_EEENSG_IJEEEEvEEvRS7_PT_DpOT0_, symObjAddr: 0xF1E8, symBinAddr: 0x10000FCB0, symSize: 0x44 }
  - { offsetInCU: 0x27797, offset: 0x27797, size: 0x8, addend: 0x0, symName: __ZNSt3__19allocatorINS_11__hash_nodeINS_17__hash_value_typeIcmEEPvEEE9constructB8ue170006INS_4pairIKcmEEJRKNS_21piecewise_construct_tENS_5tupleIJRS9_EEENSE_IJEEEEEEvPT_DpOT0_, symObjAddr: 0xF22C, symBinAddr: 0x10000FCF4, symSize: 0x44 }
  - { offsetInCU: 0x27813, offset: 0x27813, size: 0x8, addend: 0x0, symName: __ZNSt3__14pairIKcmEC1B8ue170006IJRS1_EJEEENS_21piecewise_construct_tENS_5tupleIJDpT_EEENS6_IJDpT0_EEE, symObjAddr: 0xF270, symBinAddr: 0x10000FD38, symSize: 0x44 }
  - { offsetInCU: 0x2787A, offset: 0x2787A, size: 0x8, addend: 0x0, symName: __ZNSt3__14pairIKcmEC1B8ue170006IJRS1_EJEJLm0EEJEEENS_21piecewise_construct_tERNS_5tupleIJDpT_EEERNS6_IJDpT0_EEENS_15__tuple_indicesIJXspT1_EEEENSF_IJXspT2_EEEE, symObjAddr: 0xF2B4, symBinAddr: 0x10000FD7C, symSize: 0x3C }
  - { offsetInCU: 0x27907, offset: 0x27907, size: 0x8, addend: 0x0, symName: __ZNSt3__14pairIKcmEC2B8ue170006IJRS1_EJEJLm0EEJEEENS_21piecewise_construct_tERNS_5tupleIJDpT_EEERNS6_IJDpT0_EEENS_15__tuple_indicesIJXspT1_EEEENSF_IJXspT2_EEEE, symObjAddr: 0xF2F0, symBinAddr: 0x10000FDB8, symSize: 0x48 }
  - { offsetInCU: 0x27994, offset: 0x27994, size: 0x8, addend: 0x0, symName: __ZNSt3__114pointer_traitsIPNS_17__hash_value_typeIcmEEE10pointer_toB8ue170006ERS2_, symObjAddr: 0xF338, symBinAddr: 0x10000FE00, symSize: 0x14 }
  - { offsetInCU: 0x279B7, offset: 0x279B7, size: 0x8, addend: 0x0, symName: __ZNSt3__112__hash_tableINS_17__hash_value_typeIcmEENS_22__unordered_map_hasherIcS2_NS_4hashIcEENS_8equal_toIcEELb1EEENS_21__unordered_map_equalIcS2_S7_S5_Lb1EEENS_9allocatorIS2_EEE25__emplace_unique_key_argsIcJRKNS_21piecewise_construct_tENS_5tupleIJOcEEENSI_IJEEEEEENS_4pairINS_15__hash_iteratorIPNS_11__hash_nodeIS2_PvEEEEbEERKT_DpOT0_, symObjAddr: 0xF34C, symBinAddr: 0x10000FE14, symSize: 0x4B0 }
  - { offsetInCU: 0x27AC1, offset: 0x27AC1, size: 0x8, addend: 0x0, symName: __ZNSt3__112__hash_tableINS_17__hash_value_typeIcmEENS_22__unordered_map_hasherIcS2_NS_4hashIcEENS_8equal_toIcEELb1EEENS_21__unordered_map_equalIcS2_S7_S5_Lb1EEENS_9allocatorIS2_EEE21__construct_node_hashIRKNS_21piecewise_construct_tEJNS_5tupleIJOcEEENSI_IJEEEEEENS_10unique_ptrINS_11__hash_nodeIS2_PvEENS_22__hash_node_destructorINSB_ISP_EEEEEEmOT_DpOT0_, symObjAddr: 0xF828, symBinAddr: 0x1000102F0, symSize: 0x150 }
  - { offsetInCU: 0x27B5D, offset: 0x27B5D, size: 0x8, addend: 0x0, symName: __ZNSt3__116allocator_traitsINS_9allocatorINS_11__hash_nodeINS_17__hash_value_typeIcmEEPvEEEEE9constructB8ue170006INS_4pairIKcmEEJRKNS_21piecewise_construct_tENS_5tupleIJOcEEENSG_IJEEEEvEEvRS7_PT_DpOT0_, symObjAddr: 0xF978, symBinAddr: 0x100010440, symSize: 0x44 }
  - { offsetInCU: 0x27BDC, offset: 0x27BDC, size: 0x8, addend: 0x0, symName: __ZNSt3__19allocatorINS_11__hash_nodeINS_17__hash_value_typeIcmEEPvEEE9constructB8ue170006INS_4pairIKcmEEJRKNS_21piecewise_construct_tENS_5tupleIJOcEEENSE_IJEEEEEEvPT_DpOT0_, symObjAddr: 0xF9BC, symBinAddr: 0x100010484, symSize: 0x44 }
  - { offsetInCU: 0x27C58, offset: 0x27C58, size: 0x8, addend: 0x0, symName: __ZNSt3__14pairIKcmEC1B8ue170006IJOcEJEEENS_21piecewise_construct_tENS_5tupleIJDpT_EEENS6_IJDpT0_EEE, symObjAddr: 0xFA00, symBinAddr: 0x1000104C8, symSize: 0x44 }
  - { offsetInCU: 0x27CBF, offset: 0x27CBF, size: 0x8, addend: 0x0, symName: __ZNSt3__14pairIKcmEC1B8ue170006IJOcEJEJLm0EEJEEENS_21piecewise_construct_tERNS_5tupleIJDpT_EEERNS6_IJDpT0_EEENS_15__tuple_indicesIJXspT1_EEEENSF_IJXspT2_EEEE, symObjAddr: 0xFA44, symBinAddr: 0x10001050C, symSize: 0x3C }
  - { offsetInCU: 0x27D4C, offset: 0x27D4C, size: 0x8, addend: 0x0, symName: __ZNSt3__14pairIKcmEC2B8ue170006IJOcEJEJLm0EEJEEENS_21piecewise_construct_tERNS_5tupleIJDpT_EEERNS6_IJDpT0_EEENS_15__tuple_indicesIJXspT1_EEEENSF_IJXspT2_EEEE, symObjAddr: 0xFA80, symBinAddr: 0x100010548, symSize: 0x48 }
  - { offsetInCU: 0x27DD9, offset: 0x27DD9, size: 0x8, addend: 0x0, symName: __ZNSt3__112__tuple_leafILm0EOcLb0EE3getB8ue170006Ev, symObjAddr: 0xFAEC, symBinAddr: 0x1000105B4, symSize: 0x18 }
  - { offsetInCU: 0x27DFF, offset: 0x27DFF, size: 0x8, addend: 0x0, symName: __ZNSt3__15tupleIJOcEEC1B8ue170006IJcELi0EEEDpOT_, symObjAddr: 0xFB04, symBinAddr: 0x1000105CC, symSize: 0x34 }
  - { offsetInCU: 0x27E49, offset: 0x27E49, size: 0x8, addend: 0x0, symName: __ZNSt3__15tupleIJOcEEC2B8ue170006IJcELi0EEEDpOT_, symObjAddr: 0xFB38, symBinAddr: 0x100010600, symSize: 0x34 }
  - { offsetInCU: 0x27E93, offset: 0x27E93, size: 0x8, addend: 0x0, symName: __ZNSt3__112__tuple_implINS_15__tuple_indicesIJLm0EEEEJOcEEC1B8ue170006IJLm0EEJS3_EJEJEJcEEENS1_IJXspT_EEEENS_13__tuple_typesIJDpT0_EEENS1_IJXspT1_EEEENS7_IJDpT2_EEEDpOT3_, symObjAddr: 0xFB6C, symBinAddr: 0x100010634, symSize: 0x34 }
  - { offsetInCU: 0x27F24, offset: 0x27F24, size: 0x8, addend: 0x0, symName: __ZNSt3__112__tuple_implINS_15__tuple_indicesIJLm0EEEEJOcEEC2B8ue170006IJLm0EEJS3_EJEJEJcEEENS1_IJXspT_EEEENS_13__tuple_typesIJDpT0_EEENS1_IJXspT1_EEEENS7_IJDpT2_EEEDpOT3_, symObjAddr: 0xFBA0, symBinAddr: 0x100010668, symSize: 0x34 }
  - { offsetInCU: 0x27FB5, offset: 0x27FB5, size: 0x8, addend: 0x0, symName: __ZNSt3__112__tuple_leafILm0EOcLb0EEC2B8ue170006IcvEEOT_, symObjAddr: 0xFBD4, symBinAddr: 0x10001069C, symSize: 0x20 }
  - { offsetInCU: 0x27FF8, offset: 0x27FF8, size: 0x8, addend: 0x0, symName: __ZNSt3__112basic_stringIcNS_11char_traitsIcEENS_9allocatorIcEEE13__move_assignB8ue170006ERS5_NS_17integral_constantIbLb1EEE, symObjAddr: 0xFBF4, symBinAddr: 0x1000106BC, symSize: 0xC8 }
  - { offsetInCU: 0x2803A, offset: 0x2803A, size: 0x8, addend: 0x0, symName: __ZNSt3__112basic_stringIcNS_11char_traitsIcEENS_9allocatorIcEEE7__allocB8ue170006Ev, symObjAddr: 0xFCBC, symBinAddr: 0x100010784, symSize: 0x24 }
  - { offsetInCU: 0x28060, offset: 0x28060, size: 0x8, addend: 0x0, symName: __ZNSt3__112basic_stringIcNS_11char_traitsIcEENS_9allocatorIcEEE18__get_long_pointerB8ue170006Ev, symObjAddr: 0xFCE0, symBinAddr: 0x1000107A8, symSize: 0x28 }
  - { offsetInCU: 0x28086, offset: 0x28086, size: 0x8, addend: 0x0, symName: __ZNKSt3__112basic_stringIcNS_11char_traitsIcEENS_9allocatorIcEEE14__get_long_capB8ue170006Ev, symObjAddr: 0xFD08, symBinAddr: 0x1000107D0, symSize: 0x30 }
  - { offsetInCU: 0x280AC, offset: 0x280AC, size: 0x8, addend: 0x0, symName: __ZNSt3__112basic_stringIcNS_11char_traitsIcEENS_9allocatorIcEEE19__move_assign_allocB8ue170006ERS5_, symObjAddr: 0xFD38, symBinAddr: 0x100010800, symSize: 0x2C }
  - { offsetInCU: 0x280E1, offset: 0x280E1, size: 0x8, addend: 0x0, symName: __ZNSt3__112basic_stringIcNS_11char_traitsIcEENS_9allocatorIcEEE16__set_short_sizeB8ue170006Em, symObjAddr: 0xFD64, symBinAddr: 0x10001082C, symSize: 0x78 }
  - { offsetInCU: 0x28116, offset: 0x28116, size: 0x8, addend: 0x0, symName: __ZNSt3__111char_traitsIcE6assignB8ue170006ERcRKc, symObjAddr: 0xFDDC, symBinAddr: 0x1000108A4, symSize: 0x24 }
  - { offsetInCU: 0x28147, offset: 0x28147, size: 0x8, addend: 0x0, symName: __ZNSt3__112basic_stringIcNS_11char_traitsIcEENS_9allocatorIcEEE19__get_short_pointerB8ue170006Ev, symObjAddr: 0xFE00, symBinAddr: 0x1000108C8, symSize: 0x28 }
  - { offsetInCU: 0x2816D, offset: 0x2816D, size: 0x8, addend: 0x0, symName: __ZNSt3__117__compressed_pairINS_12basic_stringIcNS_11char_traitsIcEENS_9allocatorIcEEE5__repES5_E6secondB8ue170006Ev, symObjAddr: 0xFE28, symBinAddr: 0x1000108F0, symSize: 0x24 }
  - { offsetInCU: 0x28193, offset: 0x28193, size: 0x8, addend: 0x0, symName: __ZNSt3__112basic_stringIcNS_11char_traitsIcEENS_9allocatorIcEEE19__move_assign_allocB8ue170006ERS5_NS_17integral_constantIbLb1EEE, symObjAddr: 0xFE4C, symBinAddr: 0x100010914, symSize: 0x38 }
  - { offsetInCU: 0x281D3, offset: 0x281D3, size: 0x8, addend: 0x0, symName: __ZNSt3__114pointer_traitsIPcE10pointer_toB8ue170006ERc, symObjAddr: 0xFE84, symBinAddr: 0x10001094C, symSize: 0x14 }
  - { offsetInCU: 0x281F6, offset: 0x281F6, size: 0x8, addend: 0x0, symName: __ZNSt3__19basic_iosIcNS_11char_traitsIcEEEC2B8ue170006Ev, symObjAddr: 0xFE98, symBinAddr: 0x100010960, symSize: 0x44 }
  - { offsetInCU: 0x28220, offset: 0x28220, size: 0x8, addend: 0x0, symName: __ZNSt3__114basic_iostreamIcNS_11char_traitsIcEEEC2B8ue170006EPNS_15basic_streambufIcS2_EE, symObjAddr: 0xFEDC, symBinAddr: 0x1000109A4, symSize: 0xAC }
  - { offsetInCU: 0x28266, offset: 0x28266, size: 0x8, addend: 0x0, symName: __ZNSt3__18ios_baseC2B8ue170006Ev, symObjAddr: 0xFF88, symBinAddr: 0x100010A50, symSize: 0x24 }
  - { offsetInCU: 0x28290, offset: 0x28290, size: 0x8, addend: 0x0, symName: __ZNSt3__113basic_istreamIcNS_11char_traitsIcEEEC2B8ue170006EPNS_15basic_streambufIcS2_EE, symObjAddr: 0xFFAC, symBinAddr: 0x100010A74, symSize: 0x64 }
  - { offsetInCU: 0x282D5, offset: 0x282D5, size: 0x8, addend: 0x0, symName: __ZNSt3__113basic_ostreamIcNS_11char_traitsIcEEEC2B8ue170006Ev, symObjAddr: 0x10010, symBinAddr: 0x100010AD8, symSize: 0x34 }
  - { offsetInCU: 0x2830C, offset: 0x2830C, size: 0x8, addend: 0x0, symName: __ZNSt3__19basic_iosIcNS_11char_traitsIcEEE4initB8ue170006EPNS_15basic_streambufIcS2_EE, symObjAddr: 0x10044, symBinAddr: 0x100010B0C, symSize: 0x44 }
  - { offsetInCU: 0x28343, offset: 0x28343, size: 0x8, addend: 0x0, symName: __ZNSt3__111char_traitsIcE3eofB8ue170006Ev, symObjAddr: 0x10088, symBinAddr: 0x100010B50, symSize: 0x8 }
  - { offsetInCU: 0x28357, offset: 0x28357, size: 0x8, addend: 0x0, symName: __ZNSt3__19basic_iosIcNS_11char_traitsIcEEE5clearB8ue170006Ej, symObjAddr: 0x10090, symBinAddr: 0x100010B58, symSize: 0x2C }
  - { offsetInCU: 0x2838C, offset: 0x2838C, size: 0x8, addend: 0x0, symName: __ZNSt3__19basic_iosIcNS_11char_traitsIcEEE8setstateB8ue170006Ej, symObjAddr: 0x100BC, symBinAddr: 0x100010B84, symSize: 0x2C }
  - { offsetInCU: 0x283C1, offset: 0x283C1, size: 0x8, addend: 0x0, symName: __ZNSt3__18ios_base8setstateB8ue170006Ej, symObjAddr: 0x100E8, symBinAddr: 0x100010BB0, symSize: 0x34 }
  - { offsetInCU: 0x283F8, offset: 0x283F8, size: 0x8, addend: 0x0, symName: __ZNKSt3__113basic_filebufIcNS_11char_traitsIcEEE7is_openEv, symObjAddr: 0x1011C, symBinAddr: 0x100010BE4, symSize: 0x24 }
  - { offsetInCU: 0x28420, offset: 0x28420, size: 0x8, addend: 0x0, symName: __ZNKSt3__19basic_iosIcNS_11char_traitsIcEEE5widenB8ue170006Ec, symObjAddr: 0x10378, symBinAddr: 0x100010E40, symSize: 0x84 }
  - { offsetInCU: 0x28478, offset: 0x28478, size: 0x8, addend: 0x0, symName: __ZNKSt3__113basic_istreamIcNS_11char_traitsIcEEE6sentrycvbB8ue170006Ev, symObjAddr: 0x103FC, symBinAddr: 0x100010EC4, symSize: 0x1C }
  - { offsetInCU: 0x2849E, offset: 0x2849E, size: 0x8, addend: 0x0, symName: __ZNSt3__112basic_stringIcNS_11char_traitsIcEENS_9allocatorIcEEE5clearB8ue170006Ev, symObjAddr: 0x10418, symBinAddr: 0x100010EE0, symSize: 0x78 }
  - { offsetInCU: 0x284C6, offset: 0x284C6, size: 0x8, addend: 0x0, symName: __ZNKSt3__19basic_iosIcNS_11char_traitsIcEEE5rdbufB8ue170006Ev, symObjAddr: 0x10490, symBinAddr: 0x100010F58, symSize: 0x24 }
  - { offsetInCU: 0x284EE, offset: 0x284EE, size: 0x8, addend: 0x0, symName: __ZNSt3__115basic_streambufIcNS_11char_traitsIcEEE6sbumpcB8ue170006Ev, symObjAddr: 0x104B4, symBinAddr: 0x100010F7C, symSize: 0x78 }
  - { offsetInCU: 0x28514, offset: 0x28514, size: 0x8, addend: 0x0, symName: __ZNSt3__111char_traitsIcE11eq_int_typeB8ue170006Eii, symObjAddr: 0x1052C, symBinAddr: 0x100010FF4, symSize: 0x28 }
  - { offsetInCU: 0x28547, offset: 0x28547, size: 0x8, addend: 0x0, symName: __ZNSt3__111char_traitsIcE12to_char_typeB8ue170006Ei, symObjAddr: 0x10554, symBinAddr: 0x10001101C, symSize: 0x18 }
  - { offsetInCU: 0x2856A, offset: 0x2856A, size: 0x8, addend: 0x0, symName: __ZNSt3__111char_traitsIcE2eqEcc, symObjAddr: 0x1056C, symBinAddr: 0x100011034, symSize: 0x28 }
  - { offsetInCU: 0x2859B, offset: 0x2859B, size: 0x8, addend: 0x0, symName: __ZNKSt3__112basic_stringIcNS_11char_traitsIcEENS_9allocatorIcEEE8max_sizeB8ue170006Ev, symObjAddr: 0x10594, symBinAddr: 0x10001105C, symSize: 0xAC }
  - { offsetInCU: 0x285ED, offset: 0x285ED, size: 0x8, addend: 0x0, symName: __ZNSt3__18ios_base18__setstate_nothrowB8ue170006Ej, symObjAddr: 0x10640, symBinAddr: 0x100011108, symSize: 0x64 }
  - { offsetInCU: 0x28622, offset: 0x28622, size: 0x8, addend: 0x0, symName: __ZNKSt3__19basic_iosIcNS_11char_traitsIcEEE10exceptionsB8ue170006Ev, symObjAddr: 0x106A4, symBinAddr: 0x10001116C, symSize: 0x24 }
  - { offsetInCU: 0x28648, offset: 0x28648, size: 0x8, addend: 0x0, symName: __ZNSt3__112basic_stringIcNS_11char_traitsIcEENS_9allocatorIcEEE15__set_long_sizeB8ue170006Em, symObjAddr: 0x106C8, symBinAddr: 0x100011190, symSize: 0x38 }
  - { offsetInCU: 0x2867D, offset: 0x2867D, size: 0x8, addend: 0x0, symName: __ZNKSt3__18ios_base5rdbufB8ue170006Ev, symObjAddr: 0x10700, symBinAddr: 0x1000111C8, symSize: 0x18 }
  - { offsetInCU: 0x286A3, offset: 0x286A3, size: 0x8, addend: 0x0, symName: __ZNSt3__111char_traitsIcE11to_int_typeB8ue170006Ec, symObjAddr: 0x10718, symBinAddr: 0x1000111E0, symSize: 0x14 }
  - { offsetInCU: 0x286C7, offset: 0x286C7, size: 0x8, addend: 0x0, symName: __ZNKSt3__112basic_stringIcNS_11char_traitsIcEENS_9allocatorIcEEE7__allocB8ue170006Ev, symObjAddr: 0x1072C, symBinAddr: 0x1000111F4, symSize: 0x24 }
  - { offsetInCU: 0x286ED, offset: 0x286ED, size: 0x8, addend: 0x0, symName: __ZNSt3__114numeric_limitsImE3maxB8ue170006Ev, symObjAddr: 0x10750, symBinAddr: 0x100011218, symSize: 0x14 }
  - { offsetInCU: 0x28701, offset: 0x28701, size: 0x8, addend: 0x0, symName: __ZNKSt3__117__compressed_pairINS_12basic_stringIcNS_11char_traitsIcEENS_9allocatorIcEEE5__repES5_E6secondB8ue170006Ev, symObjAddr: 0x10764, symBinAddr: 0x10001122C, symSize: 0x24 }
  - { offsetInCU: 0x28727, offset: 0x28727, size: 0x8, addend: 0x0, symName: __ZNSt3__123__libcpp_numeric_limitsImLb1EE3maxB8ue170006Ev, symObjAddr: 0x10788, symBinAddr: 0x100011250, symSize: 0x8 }
  - { offsetInCU: 0x2873B, offset: 0x2873B, size: 0x8, addend: 0x0, symName: __ZNKSt3__18ios_base10exceptionsB8ue170006Ev, symObjAddr: 0x10790, symBinAddr: 0x100011258, symSize: 0x18 }
  - { offsetInCU: 0x28795, offset: 0x28795, size: 0x8, addend: 0x0, symName: __ZNKSt3__15ctypeIcE5widenB8ue170006Ec, symObjAddr: 0x107D4, symBinAddr: 0x10001129C, symSize: 0x38 }
  - { offsetInCU: 0x287CA, offset: 0x287CA, size: 0x8, addend: 0x0, symName: __ZNKSt3__19basic_iosIcNS_11char_traitsIcEEE4failB8ue170006Ev, symObjAddr: 0x1080C, symBinAddr: 0x1000112D4, symSize: 0x28 }
  - { offsetInCU: 0x287F0, offset: 0x287F0, size: 0x8, addend: 0x0, symName: __ZNKSt3__18ios_base4failB8ue170006Ev, symObjAddr: 0x10834, symBinAddr: 0x1000112FC, symSize: 0x28 }
  - { offsetInCU: 0x28818, offset: 0x28818, size: 0x8, addend: 0x0, symName: __ZNSt3__16vectorINS_12basic_stringIcNS_11char_traitsIcEENS_9allocatorIcEEEENS4_IS6_EEEC2B8ue170006Ev, symObjAddr: 0x1085C, symBinAddr: 0x100011324, symSize: 0x4C }
  - { offsetInCU: 0x28842, offset: 0x28842, size: 0x8, addend: 0x0, symName: __ZNSt3__117__compressed_pairIPNS_12basic_stringIcNS_11char_traitsIcEENS_9allocatorIcEEEENS4_IS6_EEEC1B8ue170006IDnNS_18__default_init_tagEEEOT_OT0_, symObjAddr: 0x108A8, symBinAddr: 0x100011370, symSize: 0x3C }
  - { offsetInCU: 0x2889A, offset: 0x2889A, size: 0x8, addend: 0x0, symName: __ZNSt3__117__compressed_pairIPNS_12basic_stringIcNS_11char_traitsIcEENS_9allocatorIcEEEENS4_IS6_EEEC2B8ue170006IDnNS_18__default_init_tagEEEOT_OT0_, symObjAddr: 0x108E4, symBinAddr: 0x1000113AC, symSize: 0x40 }
  - { offsetInCU: 0x288F2, offset: 0x288F2, size: 0x8, addend: 0x0, symName: __ZNSt3__122__compressed_pair_elemIPNS_12basic_stringIcNS_11char_traitsIcEENS_9allocatorIcEEEELi0ELb0EEC2B8ue170006IDnvEEOT_, symObjAddr: 0x10924, symBinAddr: 0x1000113EC, symSize: 0x1C }
  - { offsetInCU: 0x28934, offset: 0x28934, size: 0x8, addend: 0x0, symName: __ZNSt3__122__compressed_pair_elemINS_9allocatorINS_12basic_stringIcNS_11char_traitsIcEENS1_IcEEEEEELi1ELb1EEC2B8ue170006ENS_18__default_init_tagE, symObjAddr: 0x10940, symBinAddr: 0x100011408, symSize: 0x2C }
  - { offsetInCU: 0x28968, offset: 0x28968, size: 0x8, addend: 0x0, symName: __ZNSt3__19allocatorINS_12basic_stringIcNS_11char_traitsIcEENS0_IcEEEEEC2B8ue170006Ev, symObjAddr: 0x1096C, symBinAddr: 0x100011434, symSize: 0x2C }
  - { offsetInCU: 0x28992, offset: 0x28992, size: 0x8, addend: 0x0, symName: __ZNSt3__116__non_trivial_ifILb1ENS_9allocatorINS_12basic_stringIcNS_11char_traitsIcEENS1_IcEEEEEEEC2B8ue170006Ev, symObjAddr: 0x10998, symBinAddr: 0x100011460, symSize: 0x14 }
  - { offsetInCU: 0x289BC, offset: 0x289BC, size: 0x8, addend: 0x0, symName: __ZNSt3__16vectorINS_12basic_stringIcNS_11char_traitsIcEENS_9allocatorIcEEEENS4_IS6_EEED2B8ue170006Ev, symObjAddr: 0x109AC, symBinAddr: 0x100011474, symSize: 0x44 }
  - { offsetInCU: 0x289E6, offset: 0x289E6, size: 0x8, addend: 0x0, symName: __ZNSt3__16vectorINS_12basic_stringIcNS_11char_traitsIcEENS_9allocatorIcEEEENS4_IS6_EEE16__destroy_vectorC1B8ue170006ERS8_, symObjAddr: 0x109F0, symBinAddr: 0x1000114B8, symSize: 0x34 }
  - { offsetInCU: 0x28A1F, offset: 0x28A1F, size: 0x8, addend: 0x0, symName: __ZNSt3__16vectorINS_12basic_stringIcNS_11char_traitsIcEENS_9allocatorIcEEEENS4_IS6_EEE16__destroy_vectorclB8ue170006Ev, symObjAddr: 0x10A24, symBinAddr: 0x1000114EC, symSize: 0x90 }
  - { offsetInCU: 0x28A45, offset: 0x28A45, size: 0x8, addend: 0x0, symName: __ZNSt3__16vectorINS_12basic_stringIcNS_11char_traitsIcEENS_9allocatorIcEEEENS4_IS6_EEE16__destroy_vectorC2B8ue170006ERS8_, symObjAddr: 0x10AB4, symBinAddr: 0x10001157C, symSize: 0x20 }
  - { offsetInCU: 0x28A7E, offset: 0x28A7E, size: 0x8, addend: 0x0, symName: __ZNSt3__16vectorINS_12basic_stringIcNS_11char_traitsIcEENS_9allocatorIcEEEENS4_IS6_EEE7__clearB8ue170006Ev, symObjAddr: 0x10AD4, symBinAddr: 0x10001159C, symSize: 0x28 }
  - { offsetInCU: 0x28AA4, offset: 0x28AA4, size: 0x8, addend: 0x0, symName: __ZNKSt3__16vectorINS_12basic_stringIcNS_11char_traitsIcEENS_9allocatorIcEEEENS4_IS6_EEE17__annotate_deleteB8ue170006Ev, symObjAddr: 0x10AFC, symBinAddr: 0x1000115C4, symSize: 0xD4 }
  - { offsetInCU: 0x28ACA, offset: 0x28ACA, size: 0x8, addend: 0x0, symName: __ZNSt3__116allocator_traitsINS_9allocatorINS_12basic_stringIcNS_11char_traitsIcEENS1_IcEEEEEEE10deallocateB8ue170006ERS7_PS6_m, symObjAddr: 0x10BD0, symBinAddr: 0x100011698, symSize: 0x34 }
  - { offsetInCU: 0x28B0C, offset: 0x28B0C, size: 0x8, addend: 0x0, symName: __ZNSt3__16vectorINS_12basic_stringIcNS_11char_traitsIcEENS_9allocatorIcEEEENS4_IS6_EEE7__allocB8ue170006Ev, symObjAddr: 0x10C04, symBinAddr: 0x1000116CC, symSize: 0x28 }
  - { offsetInCU: 0x28B32, offset: 0x28B32, size: 0x8, addend: 0x0, symName: __ZNKSt3__16vectorINS_12basic_stringIcNS_11char_traitsIcEENS_9allocatorIcEEEENS4_IS6_EEE8capacityB8ue170006Ev, symObjAddr: 0x10C2C, symBinAddr: 0x1000116F4, symSize: 0x40 }
  - { offsetInCU: 0x28B58, offset: 0x28B58, size: 0x8, addend: 0x0, symName: __ZNSt3__16vectorINS_12basic_stringIcNS_11char_traitsIcEENS_9allocatorIcEEEENS4_IS6_EEE22__base_destruct_at_endB8ue170006EPS6_, symObjAddr: 0x10C6C, symBinAddr: 0x100011734, symSize: 0x8C }
  - { offsetInCU: 0x28B9C, offset: 0x28B9C, size: 0x8, addend: 0x0, symName: __ZNSt3__116allocator_traitsINS_9allocatorINS_12basic_stringIcNS_11char_traitsIcEENS1_IcEEEEEEE7destroyB8ue170006IS6_vEEvRS7_PT_, symObjAddr: 0x10CF8, symBinAddr: 0x1000117C0, symSize: 0x2C }
  - { offsetInCU: 0x28BD9, offset: 0x28BD9, size: 0x8, addend: 0x0, symName: __ZNSt3__19allocatorINS_12basic_stringIcNS_11char_traitsIcEENS0_IcEEEEE7destroyB8ue170006EPS5_, symObjAddr: 0x10D38, symBinAddr: 0x100011800, symSize: 0x28 }
  - { offsetInCU: 0x28C0D, offset: 0x28C0D, size: 0x8, addend: 0x0, symName: __ZNKSt3__16vectorINS_12basic_stringIcNS_11char_traitsIcEENS_9allocatorIcEEEENS4_IS6_EEE31__annotate_contiguous_containerB8ue170006EPKvSA_SA_SA_, symObjAddr: 0x10D60, symBinAddr: 0x100011828, symSize: 0x20 }
  - { offsetInCU: 0x28C5F, offset: 0x28C5F, size: 0x8, addend: 0x0, symName: __ZNKSt3__16vectorINS_12basic_stringIcNS_11char_traitsIcEENS_9allocatorIcEEEENS4_IS6_EEE4dataB8ue170006Ev, symObjAddr: 0x10D80, symBinAddr: 0x100011848, symSize: 0x28 }
  - { offsetInCU: 0x28C85, offset: 0x28C85, size: 0x8, addend: 0x0, symName: __ZNKSt3__16vectorINS_12basic_stringIcNS_11char_traitsIcEENS_9allocatorIcEEEENS4_IS6_EEE4sizeB8ue170006Ev, symObjAddr: 0x10DA8, symBinAddr: 0x100011870, symSize: 0x28 }
  - { offsetInCU: 0x28CAB, offset: 0x28CAB, size: 0x8, addend: 0x0, symName: __ZNSt3__19allocatorINS_12basic_stringIcNS_11char_traitsIcEENS0_IcEEEEE10deallocateB8ue170006EPS5_m, symObjAddr: 0x10DD0, symBinAddr: 0x100011898, symSize: 0x44 }
  - { offsetInCU: 0x28CED, offset: 0x28CED, size: 0x8, addend: 0x0, symName: __ZNSt3__117__compressed_pairIPNS_12basic_stringIcNS_11char_traitsIcEENS_9allocatorIcEEEENS4_IS6_EEE6secondB8ue170006Ev, symObjAddr: 0x10E14, symBinAddr: 0x1000118DC, symSize: 0x24 }
  - { offsetInCU: 0x28D13, offset: 0x28D13, size: 0x8, addend: 0x0, symName: __ZNSt3__122__compressed_pair_elemINS_9allocatorINS_12basic_stringIcNS_11char_traitsIcEENS1_IcEEEEEELi1ELb1EE5__getB8ue170006Ev, symObjAddr: 0x10E38, symBinAddr: 0x100011900, symSize: 0x14 }
  - { offsetInCU: 0x28D39, offset: 0x28D39, size: 0x8, addend: 0x0, symName: __ZNKSt3__16vectorINS_12basic_stringIcNS_11char_traitsIcEENS_9allocatorIcEEEENS4_IS6_EEE9__end_capB8ue170006Ev, symObjAddr: 0x10E4C, symBinAddr: 0x100011914, symSize: 0x28 }
  - { offsetInCU: 0x28D5F, offset: 0x28D5F, size: 0x8, addend: 0x0, symName: __ZNKSt3__117__compressed_pairIPNS_12basic_stringIcNS_11char_traitsIcEENS_9allocatorIcEEEENS4_IS6_EEE5firstB8ue170006Ev, symObjAddr: 0x10E74, symBinAddr: 0x10001193C, symSize: 0x24 }
  - { offsetInCU: 0x28D85, offset: 0x28D85, size: 0x8, addend: 0x0, symName: __ZNKSt3__122__compressed_pair_elemIPNS_12basic_stringIcNS_11char_traitsIcEENS_9allocatorIcEEEELi0ELb0EE5__getB8ue170006Ev, symObjAddr: 0x10E98, symBinAddr: 0x100011960, symSize: 0x14 }
  - { offsetInCU: 0x28DAB, offset: 0x28DAB, size: 0x8, addend: 0x0, symName: __ZNSt3__19allocatorIcEC1B8ue170006Ev, symObjAddr: 0x10EAC, symBinAddr: 0x100011974, symSize: 0x2C }
  - { offsetInCU: 0x28DD5, offset: 0x28DD5, size: 0x8, addend: 0x0, symName: __ZNSt3__16vectorINS_12basic_stringIcNS_11char_traitsIcEENS_9allocatorIcEEEENS4_IS6_EEE9__end_capB8ue170006Ev, symObjAddr: 0x10ED8, symBinAddr: 0x1000119A0, symSize: 0x28 }
  - { offsetInCU: 0x28DFB, offset: 0x28DFB, size: 0x8, addend: 0x0, symName: __ZNSt3__16vectorINS_12basic_stringIcNS_11char_traitsIcEENS_9allocatorIcEEEENS4_IS6_EEE22__construct_one_at_endB8ue170006IJRKS6_EEEvDpOT_, symObjAddr: 0x10F00, symBinAddr: 0x1000119C8, symSize: 0x90 }
  - { offsetInCU: 0x28E4A, offset: 0x28E4A, size: 0x8, addend: 0x0, symName: __ZNSt3__16vectorINS_12basic_stringIcNS_11char_traitsIcEENS_9allocatorIcEEEENS4_IS6_EEE21__push_back_slow_pathIRKS6_EEvOT_, symObjAddr: 0x10F90, symBinAddr: 0x100011A58, symSize: 0xD8 }
  - { offsetInCU: 0x28EA8, offset: 0x28EA8, size: 0x8, addend: 0x0, symName: __ZNSt3__117__compressed_pairIPNS_12basic_stringIcNS_11char_traitsIcEENS_9allocatorIcEEEENS4_IS6_EEE5firstB8ue170006Ev, symObjAddr: 0x11068, symBinAddr: 0x100011B30, symSize: 0x24 }
  - { offsetInCU: 0x28ECE, offset: 0x28ECE, size: 0x8, addend: 0x0, symName: __ZNSt3__122__compressed_pair_elemIPNS_12basic_stringIcNS_11char_traitsIcEENS_9allocatorIcEEEELi0ELb0EE5__getB8ue170006Ev, symObjAddr: 0x1108C, symBinAddr: 0x100011B54, symSize: 0x14 }
  - { offsetInCU: 0x28F0F, offset: 0x28F0F, size: 0x8, addend: 0x0, symName: __ZNSt3__16vectorINS_12basic_stringIcNS_11char_traitsIcEENS_9allocatorIcEEEENS4_IS6_EEE21_ConstructTransactionC1B8ue170006ERS8_m, symObjAddr: 0x110A0, symBinAddr: 0x100011B68, symSize: 0x3C }
  - { offsetInCU: 0x28F57, offset: 0x28F57, size: 0x8, addend: 0x0, symName: __ZNSt3__116allocator_traitsINS_9allocatorINS_12basic_stringIcNS_11char_traitsIcEENS1_IcEEEEEEE9constructB8ue170006IS6_JRKS6_EvEEvRS7_PT_DpOT0_, symObjAddr: 0x110DC, symBinAddr: 0x100011BA4, symSize: 0x34 }
  - { offsetInCU: 0x28FAE, offset: 0x28FAE, size: 0x8, addend: 0x0, symName: __ZNSt3__16vectorINS_12basic_stringIcNS_11char_traitsIcEENS_9allocatorIcEEEENS4_IS6_EEE21_ConstructTransactionD1B8ue170006Ev, symObjAddr: 0x11110, symBinAddr: 0x100011BD8, symSize: 0x2C }
  - { offsetInCU: 0x28FD8, offset: 0x28FD8, size: 0x8, addend: 0x0, symName: __ZNSt3__16vectorINS_12basic_stringIcNS_11char_traitsIcEENS_9allocatorIcEEEENS4_IS6_EEE21_ConstructTransactionC2B8ue170006ERS8_m, symObjAddr: 0x1113C, symBinAddr: 0x100011C04, symSize: 0x4C }
  - { offsetInCU: 0x29020, offset: 0x29020, size: 0x8, addend: 0x0, symName: __ZNSt3__19allocatorINS_12basic_stringIcNS_11char_traitsIcEENS0_IcEEEEE9constructB8ue170006IS5_JRKS5_EEEvPT_DpOT0_, symObjAddr: 0x11188, symBinAddr: 0x100011C50, symSize: 0x30 }
  - { offsetInCU: 0x29076, offset: 0x29076, size: 0x8, addend: 0x0, symName: __ZNSt3__16vectorINS_12basic_stringIcNS_11char_traitsIcEENS_9allocatorIcEEEENS4_IS6_EEE21_ConstructTransactionD2B8ue170006Ev, symObjAddr: 0x111B8, symBinAddr: 0x100011C80, symSize: 0x20 }
  - { offsetInCU: 0x290A0, offset: 0x290A0, size: 0x8, addend: 0x0, symName: __ZNKSt3__16vectorINS_12basic_stringIcNS_11char_traitsIcEENS_9allocatorIcEEEENS4_IS6_EEE11__recommendB8ue170006Em, symObjAddr: 0x111D8, symBinAddr: 0x100011CA0, symSize: 0xB4 }
  - { offsetInCU: 0x290F5, offset: 0x290F5, size: 0x8, addend: 0x0, symName: __ZNSt3__114__split_bufferINS_12basic_stringIcNS_11char_traitsIcEENS_9allocatorIcEEEERNS4_IS6_EEEC1EmmS8_, symObjAddr: 0x1128C, symBinAddr: 0x100011D54, symSize: 0x44 }
  - { offsetInCU: 0x2914B, offset: 0x2914B, size: 0x8, addend: 0x0, symName: __ZNSt3__114__split_bufferINS_12basic_stringIcNS_11char_traitsIcEENS_9allocatorIcEEEERNS4_IS6_EEED1Ev, symObjAddr: 0x113E0, symBinAddr: 0x100011EA8, symSize: 0x2C }
  - { offsetInCU: 0x29177, offset: 0x29177, size: 0x8, addend: 0x0, symName: __ZNKSt3__16vectorINS_12basic_stringIcNS_11char_traitsIcEENS_9allocatorIcEEEENS4_IS6_EEE8max_sizeEv, symObjAddr: 0x1140C, symBinAddr: 0x100011ED4, symSize: 0x60 }
  - { offsetInCU: 0x2919F, offset: 0x2919F, size: 0x8, addend: 0x0, symName: __ZNKSt3__16vectorINS_12basic_stringIcNS_11char_traitsIcEENS_9allocatorIcEEEENS4_IS6_EEE20__throw_length_errorB8ue170006Ev, symObjAddr: 0x1146C, symBinAddr: 0x100011F34, symSize: 0x1C }
  - { offsetInCU: 0x291D0, offset: 0x291D0, size: 0x8, addend: 0x0, symName: __ZNSt3__116allocator_traitsINS_9allocatorINS_12basic_stringIcNS_11char_traitsIcEENS1_IcEEEEEEE8max_sizeB8ue170006IS7_vEEmRKS7_, symObjAddr: 0x11488, symBinAddr: 0x100011F50, symSize: 0x24 }
  - { offsetInCU: 0x291FE, offset: 0x291FE, size: 0x8, addend: 0x0, symName: __ZNKSt3__16vectorINS_12basic_stringIcNS_11char_traitsIcEENS_9allocatorIcEEEENS4_IS6_EEE7__allocB8ue170006Ev, symObjAddr: 0x114AC, symBinAddr: 0x100011F74, symSize: 0x28 }
  - { offsetInCU: 0x29224, offset: 0x29224, size: 0x8, addend: 0x0, symName: __ZNKSt3__19allocatorINS_12basic_stringIcNS_11char_traitsIcEENS0_IcEEEEE8max_sizeB8ue170006Ev, symObjAddr: 0x114D4, symBinAddr: 0x100011F9C, symSize: 0x18 }
  - { offsetInCU: 0x2924A, offset: 0x2924A, size: 0x8, addend: 0x0, symName: __ZNKSt3__117__compressed_pairIPNS_12basic_stringIcNS_11char_traitsIcEENS_9allocatorIcEEEENS4_IS6_EEE6secondB8ue170006Ev, symObjAddr: 0x114EC, symBinAddr: 0x100011FB4, symSize: 0x24 }
  - { offsetInCU: 0x29270, offset: 0x29270, size: 0x8, addend: 0x0, symName: __ZNKSt3__122__compressed_pair_elemINS_9allocatorINS_12basic_stringIcNS_11char_traitsIcEENS1_IcEEEEEELi1ELb1EE5__getB8ue170006Ev, symObjAddr: 0x11510, symBinAddr: 0x100011FD8, symSize: 0x14 }
  - { offsetInCU: 0x29296, offset: 0x29296, size: 0x8, addend: 0x0, symName: __ZNSt3__114__split_bufferINS_12basic_stringIcNS_11char_traitsIcEENS_9allocatorIcEEEERNS4_IS6_EEEC2EmmS8_, symObjAddr: 0x11524, symBinAddr: 0x100011FEC, symSize: 0xE0 }
  - { offsetInCU: 0x29309, offset: 0x29309, size: 0x8, addend: 0x0, symName: __ZNSt3__117__compressed_pairIPNS_12basic_stringIcNS_11char_traitsIcEENS_9allocatorIcEEEERNS4_IS6_EEEC1B8ue170006IDnS9_EEOT_OT0_, symObjAddr: 0x11604, symBinAddr: 0x1000120CC, symSize: 0x3C }
  - { offsetInCU: 0x29361, offset: 0x29361, size: 0x8, addend: 0x0, symName: __ZNSt3__114__split_bufferINS_12basic_stringIcNS_11char_traitsIcEENS_9allocatorIcEEEERNS4_IS6_EEE7__allocB8ue170006Ev, symObjAddr: 0x11680, symBinAddr: 0x100012148, symSize: 0x28 }
  - { offsetInCU: 0x29387, offset: 0x29387, size: 0x8, addend: 0x0, symName: __ZNSt3__114__split_bufferINS_12basic_stringIcNS_11char_traitsIcEENS_9allocatorIcEEEERNS4_IS6_EEE9__end_capB8ue170006Ev, symObjAddr: 0x116A8, symBinAddr: 0x100012170, symSize: 0x28 }
  - { offsetInCU: 0x293AD, offset: 0x293AD, size: 0x8, addend: 0x0, symName: __ZNSt3__117__compressed_pairIPNS_12basic_stringIcNS_11char_traitsIcEENS_9allocatorIcEEEERNS4_IS6_EEEC2B8ue170006IDnS9_EEOT_OT0_, symObjAddr: 0x116D0, symBinAddr: 0x100012198, symSize: 0x48 }
  - { offsetInCU: 0x29405, offset: 0x29405, size: 0x8, addend: 0x0, symName: __ZNSt3__122__compressed_pair_elemIRNS_9allocatorINS_12basic_stringIcNS_11char_traitsIcEENS1_IcEEEEEELi1ELb0EEC2B8ue170006IS8_vEEOT_, symObjAddr: 0x11718, symBinAddr: 0x1000121E0, symSize: 0x20 }
  - { offsetInCU: 0x29447, offset: 0x29447, size: 0x8, addend: 0x0, symName: __ZNSt3__19allocatorINS_12basic_stringIcNS_11char_traitsIcEENS0_IcEEEEE8allocateB8ue170006Em, symObjAddr: 0x11738, symBinAddr: 0x100012200, symSize: 0x5C }
  - { offsetInCU: 0x2947B, offset: 0x2947B, size: 0x8, addend: 0x0, symName: __ZNSt3__117__compressed_pairIPNS_12basic_stringIcNS_11char_traitsIcEENS_9allocatorIcEEEERNS4_IS6_EEE6secondB8ue170006Ev, symObjAddr: 0x11794, symBinAddr: 0x10001225C, symSize: 0x28 }
  - { offsetInCU: 0x294A1, offset: 0x294A1, size: 0x8, addend: 0x0, symName: __ZNSt3__122__compressed_pair_elemIRNS_9allocatorINS_12basic_stringIcNS_11char_traitsIcEENS1_IcEEEEEELi1ELb0EE5__getB8ue170006Ev, symObjAddr: 0x117BC, symBinAddr: 0x100012284, symSize: 0x18 }
  - { offsetInCU: 0x294C7, offset: 0x294C7, size: 0x8, addend: 0x0, symName: __ZNSt3__117__compressed_pairIPNS_12basic_stringIcNS_11char_traitsIcEENS_9allocatorIcEEEERNS4_IS6_EEE5firstB8ue170006Ev, symObjAddr: 0x117D4, symBinAddr: 0x10001229C, symSize: 0x24 }
  - { offsetInCU: 0x294ED, offset: 0x294ED, size: 0x8, addend: 0x0, symName: __ZNSt3__116reverse_iteratorIPNS_12basic_stringIcNS_11char_traitsIcEENS_9allocatorIcEEEEEC1B8ue170006ES7_, symObjAddr: 0x11924, symBinAddr: 0x1000123EC, symSize: 0x34 }
  - { offsetInCU: 0x29525, offset: 0x29525, size: 0x8, addend: 0x0, symName: __ZNKSt3__116reverse_iteratorIPNS_12basic_stringIcNS_11char_traitsIcEENS_9allocatorIcEEEEE4baseB8ue170006Ev, symObjAddr: 0x11958, symBinAddr: 0x100012420, symSize: 0x18 }
  - { offsetInCU: 0x2954B, offset: 0x2954B, size: 0x8, addend: 0x0, symName: __ZNKSt3__16vectorINS_12basic_stringIcNS_11char_traitsIcEENS_9allocatorIcEEEENS4_IS6_EEE14__annotate_newB8ue170006Em, symObjAddr: 0x119AC, symBinAddr: 0x100012474, symSize: 0xC8 }
  - { offsetInCU: 0x29580, offset: 0x29580, size: 0x8, addend: 0x0, symName: __ZNSt3__129_AllocatorDestroyRangeReverseINS_9allocatorINS_12basic_stringIcNS_11char_traitsIcEENS1_IcEEEEEENS_16reverse_iteratorIPS6_EEEC1B8ue170006ERS7_RSA_SD_, symObjAddr: 0x11AC0, symBinAddr: 0x100012588, symSize: 0x44 }
  - { offsetInCU: 0x295DD, offset: 0x295DD, size: 0x8, addend: 0x0, symName: __ZNSt3__116allocator_traitsINS_9allocatorINS_12basic_stringIcNS_11char_traitsIcEENS1_IcEEEEEEE9constructB8ue170006IS6_JS6_EvEEvRS7_PT_DpOT0_, symObjAddr: 0x11B4C, symBinAddr: 0x100012614, symSize: 0x34 }
  - { offsetInCU: 0x29634, offset: 0x29634, size: 0x8, addend: 0x0, symName: __ZNKSt3__116reverse_iteratorIPNS_12basic_stringIcNS_11char_traitsIcEENS_9allocatorIcEEEEEdeB8ue170006Ev, symObjAddr: 0x11BA4, symBinAddr: 0x10001266C, symSize: 0x28 }
  - { offsetInCU: 0x29668, offset: 0x29668, size: 0x8, addend: 0x0, symName: __ZNSt3__116reverse_iteratorIPNS_12basic_stringIcNS_11char_traitsIcEENS_9allocatorIcEEEEEppB8ue170006Ev, symObjAddr: 0x11BCC, symBinAddr: 0x100012694, symSize: 0x20 }
  - { offsetInCU: 0x2968E, offset: 0x2968E, size: 0x8, addend: 0x0, symName: __ZNSt3__128__exception_guard_exceptionsINS_29_AllocatorDestroyRangeReverseINS_9allocatorINS_12basic_stringIcNS_11char_traitsIcEENS2_IcEEEEEENS_16reverse_iteratorIPS7_EEEEE10__completeB8ue170006Ev, symObjAddr: 0x11BEC, symBinAddr: 0x1000126B4, symSize: 0x1C }
  - { offsetInCU: 0x296B4, offset: 0x296B4, size: 0x8, addend: 0x0, symName: __ZNSt3__128__exception_guard_exceptionsINS_29_AllocatorDestroyRangeReverseINS_9allocatorINS_12basic_stringIcNS_11char_traitsIcEENS2_IcEEEEEENS_16reverse_iteratorIPS7_EEEEED1B8ue170006Ev, symObjAddr: 0x11C08, symBinAddr: 0x1000126D0, symSize: 0x2C }
  - { offsetInCU: 0x296DE, offset: 0x296DE, size: 0x8, addend: 0x0, symName: __ZNSt3__128__exception_guard_exceptionsINS_29_AllocatorDestroyRangeReverseINS_9allocatorINS_12basic_stringIcNS_11char_traitsIcEENS2_IcEEEEEENS_16reverse_iteratorIPS7_EEEEEC1B8ue170006ESC_, symObjAddr: 0x11C34, symBinAddr: 0x1000126FC, symSize: 0x34 }
  - { offsetInCU: 0x29717, offset: 0x29717, size: 0x8, addend: 0x0, symName: __ZNSt3__128__exception_guard_exceptionsINS_29_AllocatorDestroyRangeReverseINS_9allocatorINS_12basic_stringIcNS_11char_traitsIcEENS2_IcEEEEEENS_16reverse_iteratorIPS7_EEEEEC2B8ue170006ESC_, symObjAddr: 0x11C68, symBinAddr: 0x100012730, symSize: 0x30 }
  - { offsetInCU: 0x29750, offset: 0x29750, size: 0x8, addend: 0x0, symName: __ZNSt3__129_AllocatorDestroyRangeReverseINS_9allocatorINS_12basic_stringIcNS_11char_traitsIcEENS1_IcEEEEEENS_16reverse_iteratorIPS6_EEEC2B8ue170006ERS7_RSA_SD_, symObjAddr: 0x11C98, symBinAddr: 0x100012760, symSize: 0x38 }
  - { offsetInCU: 0x297A7, offset: 0x297A7, size: 0x8, addend: 0x0, symName: __ZNSt3__19allocatorINS_12basic_stringIcNS_11char_traitsIcEENS0_IcEEEEE9constructB8ue170006IS5_JS5_EEEvPT_DpOT0_, symObjAddr: 0x11CD0, symBinAddr: 0x100012798, symSize: 0x30 }
  - { offsetInCU: 0x297FD, offset: 0x297FD, size: 0x8, addend: 0x0, symName: __ZNSt3__112basic_stringIcNS_11char_traitsIcEENS_9allocatorIcEEEC1B8ue170006EOS5_, symObjAddr: 0x11D00, symBinAddr: 0x1000127C8, symSize: 0x34 }
  - { offsetInCU: 0x29836, offset: 0x29836, size: 0x8, addend: 0x0, symName: __ZNSt3__112basic_stringIcNS_11char_traitsIcEENS_9allocatorIcEEEC2B8ue170006EOS5_, symObjAddr: 0x11D34, symBinAddr: 0x1000127FC, symSize: 0x48 }
  - { offsetInCU: 0x29875, offset: 0x29875, size: 0x8, addend: 0x0, symName: __ZNSt3__119__to_address_helperINS_16reverse_iteratorIPNS_12basic_stringIcNS_11char_traitsIcEENS_9allocatorIcEEEEEEvE6__callB8ue170006ERKS9_, symObjAddr: 0x11D7C, symBinAddr: 0x100012844, symSize: 0x38 }
  - { offsetInCU: 0x29898, offset: 0x29898, size: 0x8, addend: 0x0, symName: __ZNKSt3__116reverse_iteratorIPNS_12basic_stringIcNS_11char_traitsIcEENS_9allocatorIcEEEEEptB8ue170006Ev, symObjAddr: 0x11DB4, symBinAddr: 0x10001287C, symSize: 0x24 }
  - { offsetInCU: 0x298BE, offset: 0x298BE, size: 0x8, addend: 0x0, symName: __ZNSt3__128__exception_guard_exceptionsINS_29_AllocatorDestroyRangeReverseINS_9allocatorINS_12basic_stringIcNS_11char_traitsIcEENS2_IcEEEEEENS_16reverse_iteratorIPS7_EEEEED2B8ue170006Ev, symObjAddr: 0x11DD8, symBinAddr: 0x1000128A0, symSize: 0x50 }
  - { offsetInCU: 0x298E8, offset: 0x298E8, size: 0x8, addend: 0x0, symName: __ZNKSt3__129_AllocatorDestroyRangeReverseINS_9allocatorINS_12basic_stringIcNS_11char_traitsIcEENS1_IcEEEEEENS_16reverse_iteratorIPS6_EEEclB8ue170006Ev, symObjAddr: 0x11E28, symBinAddr: 0x1000128F0, symSize: 0xB4 }
  - { offsetInCU: 0x2990F, offset: 0x2990F, size: 0x8, addend: 0x0, symName: __ZNSt3__116reverse_iteratorINS0_IPNS_12basic_stringIcNS_11char_traitsIcEENS_9allocatorIcEEEEEEEC1B8ue170006ES8_, symObjAddr: 0x11F4C, symBinAddr: 0x100012A14, symSize: 0x3C }
  - { offsetInCU: 0x29947, offset: 0x29947, size: 0x8, addend: 0x0, symName: __ZNSt3__116reverse_iteratorINS0_IPNS_12basic_stringIcNS_11char_traitsIcEENS_9allocatorIcEEEEEEEppB8ue170006Ev, symObjAddr: 0x1200C, symBinAddr: 0x100012AD4, symSize: 0x30 }
  - { offsetInCU: 0x2996D, offset: 0x2996D, size: 0x8, addend: 0x0, symName: __ZNKSt3__116reverse_iteratorINS0_IPNS_12basic_stringIcNS_11char_traitsIcEENS_9allocatorIcEEEEEEE4baseB8ue170006Ev, symObjAddr: 0x1203C, symBinAddr: 0x100012B04, symSize: 0x24 }
  - { offsetInCU: 0x29999, offset: 0x29999, size: 0x8, addend: 0x0, symName: __ZNSt3__119__to_address_helperINS_16reverse_iteratorINS1_IPNS_12basic_stringIcNS_11char_traitsIcEENS_9allocatorIcEEEEEEEEvE6__callB8ue170006ERKSA_, symObjAddr: 0x12060, symBinAddr: 0x100012B28, symSize: 0x38 }
  - { offsetInCU: 0x299BC, offset: 0x299BC, size: 0x8, addend: 0x0, symName: __ZNKSt3__116reverse_iteratorINS0_IPNS_12basic_stringIcNS_11char_traitsIcEENS_9allocatorIcEEEEEEEptB8ue170006Ev, symObjAddr: 0x12098, symBinAddr: 0x100012B60, symSize: 0x24 }
  - { offsetInCU: 0x299E2, offset: 0x299E2, size: 0x8, addend: 0x0, symName: __ZNKSt3__116reverse_iteratorINS0_IPNS_12basic_stringIcNS_11char_traitsIcEENS_9allocatorIcEEEEEEEdeB8ue170006Ev, symObjAddr: 0x120BC, symBinAddr: 0x100012B84, symSize: 0x34 }
  - { offsetInCU: 0x29A16, offset: 0x29A16, size: 0x8, addend: 0x0, symName: __ZNSt3__116reverse_iteratorIPNS_12basic_stringIcNS_11char_traitsIcEENS_9allocatorIcEEEEEmmB8ue170006Ev, symObjAddr: 0x120F0, symBinAddr: 0x100012BB8, symSize: 0x20 }
  - { offsetInCU: 0x29A3C, offset: 0x29A3C, size: 0x8, addend: 0x0, symName: __ZNSt3__116reverse_iteratorINS0_IPNS_12basic_stringIcNS_11char_traitsIcEENS_9allocatorIcEEEEEEEC2B8ue170006ES8_, symObjAddr: 0x12110, symBinAddr: 0x100012BD8, symSize: 0x2C }
  - { offsetInCU: 0x29A74, offset: 0x29A74, size: 0x8, addend: 0x0, symName: __ZNSt3__116reverse_iteratorIPNS_12basic_stringIcNS_11char_traitsIcEENS_9allocatorIcEEEEEC2B8ue170006ES7_, symObjAddr: 0x1213C, symBinAddr: 0x100012C04, symSize: 0x28 }
  - { offsetInCU: 0x29AAC, offset: 0x29AAC, size: 0x8, addend: 0x0, symName: __ZNSt3__114__split_bufferINS_12basic_stringIcNS_11char_traitsIcEENS_9allocatorIcEEEERNS4_IS6_EEED2Ev, symObjAddr: 0x12164, symBinAddr: 0x100012C2C, symSize: 0x8C }
  - { offsetInCU: 0x29AD8, offset: 0x29AD8, size: 0x8, addend: 0x0, symName: __ZNSt3__114__split_bufferINS_12basic_stringIcNS_11char_traitsIcEENS_9allocatorIcEEEERNS4_IS6_EEE5clearB8ue170006Ev, symObjAddr: 0x121F0, symBinAddr: 0x100012CB8, symSize: 0x28 }
  - { offsetInCU: 0x29AFE, offset: 0x29AFE, size: 0x8, addend: 0x0, symName: __ZNKSt3__114__split_bufferINS_12basic_stringIcNS_11char_traitsIcEENS_9allocatorIcEEEERNS4_IS6_EEE8capacityB8ue170006Ev, symObjAddr: 0x12218, symBinAddr: 0x100012CE0, symSize: 0x40 }
  - { offsetInCU: 0x29B24, offset: 0x29B24, size: 0x8, addend: 0x0, symName: __ZNSt3__114__split_bufferINS_12basic_stringIcNS_11char_traitsIcEENS_9allocatorIcEEEERNS4_IS6_EEE17__destruct_at_endB8ue170006EPS6_, symObjAddr: 0x12258, symBinAddr: 0x100012D20, symSize: 0x2C }
  - { offsetInCU: 0x29B58, offset: 0x29B58, size: 0x8, addend: 0x0, symName: __ZNSt3__114__split_bufferINS_12basic_stringIcNS_11char_traitsIcEENS_9allocatorIcEEEERNS4_IS6_EEE17__destruct_at_endB8ue170006EPS6_NS_17integral_constantIbLb0EEE, symObjAddr: 0x12284, symBinAddr: 0x100012D4C, symSize: 0x80 }
  - { offsetInCU: 0x29B98, offset: 0x29B98, size: 0x8, addend: 0x0, symName: __ZNKSt3__114__split_bufferINS_12basic_stringIcNS_11char_traitsIcEENS_9allocatorIcEEEERNS4_IS6_EEE9__end_capB8ue170006Ev, symObjAddr: 0x12304, symBinAddr: 0x100012DCC, symSize: 0x28 }
  - { offsetInCU: 0x29BBE, offset: 0x29BBE, size: 0x8, addend: 0x0, symName: __ZNKSt3__117__compressed_pairIPNS_12basic_stringIcNS_11char_traitsIcEENS_9allocatorIcEEEERNS4_IS6_EEE5firstB8ue170006Ev, symObjAddr: 0x1232C, symBinAddr: 0x100012DF4, symSize: 0x24 }
  - { offsetInCU: 0x29BE4, offset: 0x29BE4, size: 0x8, addend: 0x0, symName: __ZN5DequeI4TaskE10push_frontES0_, symObjAddr: 0x12350, symBinAddr: 0x100012E18, symSize: 0xDC }
  - { offsetInCU: 0x29C19, offset: 0x29C19, size: 0x8, addend: 0x0, symName: __ZN5DequeI4TaskE4fullEv, symObjAddr: 0x1242C, symBinAddr: 0x100012EF4, symSize: 0x28 }
  - { offsetInCU: 0x29C3F, offset: 0x29C3F, size: 0x8, addend: 0x0, symName: __ZN4TaskaSERKS_, symObjAddr: 0x12454, symBinAddr: 0x100012F1C, symSize: 0x68 }
  - { offsetInCU: 0x29C70, offset: 0x29C70, size: 0x8, addend: 0x0, symName: __ZN5DequeI4TaskE6resizeEv, symObjAddr: 0x124BC, symBinAddr: 0x100012F84, symSize: 0x2F8 }
  - { offsetInCU: 0x29CF0, offset: 0x29CF0, size: 0x8, addend: 0x0, symName: __ZN5DequeI4TaskE10array_sizeEv, symObjAddr: 0x127B4, symBinAddr: 0x10001327C, symSize: 0x18 }
  - { offsetInCU: 0x29D16, offset: 0x29D16, size: 0x8, addend: 0x0, symName: __ZN5DequeI4TaskE8pop_backEv, symObjAddr: 0x127CC, symBinAddr: 0x100013294, symSize: 0xB4 }
  - { offsetInCU: 0x29D4B, offset: 0x29D4B, size: 0x8, addend: 0x0, symName: __ZNSt3__111char_traitsIcE6lengthB8ue170006EPKc, symObjAddr: 0x12A6C, symBinAddr: 0x100013534, symSize: 0x34 }
  - { offsetInCU: 0x29D8F, offset: 0x29D8F, size: 0x8, addend: 0x0, symName: __ZNKSt3__113basic_ostreamIcNS_11char_traitsIcEEE6sentrycvbB8ue170006Ev, symObjAddr: 0x12AA0, symBinAddr: 0x100013568, symSize: 0x1C }
  - { offsetInCU: 0x29DB5, offset: 0x29DB5, size: 0x8, addend: 0x0, symName: __ZNSt3__119ostreambuf_iteratorIcNS_11char_traitsIcEEEC1B8ue170006ERNS_13basic_ostreamIcS2_EE, symObjAddr: 0x12CFC, symBinAddr: 0x1000137C4, symSize: 0x34 }
  - { offsetInCU: 0x29DED, offset: 0x29DED, size: 0x8, addend: 0x0, symName: __ZNKSt3__18ios_base5flagsB8ue170006Ev, symObjAddr: 0x12D30, symBinAddr: 0x1000137F8, symSize: 0x18 }
  - { offsetInCU: 0x29E15, offset: 0x29E15, size: 0x8, addend: 0x0, symName: __ZNKSt3__19basic_iosIcNS_11char_traitsIcEEE4fillB8ue170006Ev, symObjAddr: 0x12D48, symBinAddr: 0x100013810, symSize: 0x64 }
  - { offsetInCU: 0x29E3D, offset: 0x29E3D, size: 0x8, addend: 0x0, symName: __ZNKSt3__119ostreambuf_iteratorIcNS_11char_traitsIcEEE6failedB8ue170006Ev, symObjAddr: 0x12DAC, symBinAddr: 0x100013874, symSize: 0x24 }
  - { offsetInCU: 0x29E63, offset: 0x29E63, size: 0x8, addend: 0x0, symName: __ZNKSt3__18ios_base5widthB8ue170006Ev, symObjAddr: 0x12DD0, symBinAddr: 0x100013898, symSize: 0x18 }
  - { offsetInCU: 0x29E8B, offset: 0x29E8B, size: 0x8, addend: 0x0, symName: __ZNSt3__115basic_streambufIcNS_11char_traitsIcEEE5sputnB8ue170006EPKcl, symObjAddr: 0x12DE8, symBinAddr: 0x1000138B0, symSize: 0x3C }
  - { offsetInCU: 0x29ECD, offset: 0x29ECD, size: 0x8, addend: 0x0, symName: __ZNSt3__112basic_stringIcNS_11char_traitsIcEENS_9allocatorIcEEEC1B8ue170006Emc, symObjAddr: 0x12E24, symBinAddr: 0x1000138EC, symSize: 0x3C }
  - { offsetInCU: 0x29F15, offset: 0x29F15, size: 0x8, addend: 0x0, symName: __ZNSt3__112basic_stringIcNS_11char_traitsIcEENS_9allocatorIcEEE4dataB8ue170006Ev, symObjAddr: 0x12E60, symBinAddr: 0x100013928, symSize: 0x28 }
  - { offsetInCU: 0x29F3B, offset: 0x29F3B, size: 0x8, addend: 0x0, symName: __ZNSt3__18ios_base5widthB8ue170006El, symObjAddr: 0x12E88, symBinAddr: 0x100013950, symSize: 0x2C }
  - { offsetInCU: 0x29F81, offset: 0x29F81, size: 0x8, addend: 0x0, symName: __ZNSt3__112basic_stringIcNS_11char_traitsIcEENS_9allocatorIcEEEC2B8ue170006Emc, symObjAddr: 0x12EB4, symBinAddr: 0x10001397C, symSize: 0x4C }
  - { offsetInCU: 0x29FC9, offset: 0x29FC9, size: 0x8, addend: 0x0, symName: __ZNSt3__112basic_stringIcNS_11char_traitsIcEENS_9allocatorIcEEE13__get_pointerB8ue170006Ev, symObjAddr: 0x12F00, symBinAddr: 0x1000139C8, symSize: 0x54 }
  - { offsetInCU: 0x29FEF, offset: 0x29FEF, size: 0x8, addend: 0x0, symName: __ZNSt3__119ostreambuf_iteratorIcNS_11char_traitsIcEEEC2B8ue170006ERNS_13basic_ostreamIcS2_EE, symObjAddr: 0x12F54, symBinAddr: 0x100013A1C, symSize: 0x54 }
  - { offsetInCU: 0x2A027, offset: 0x2A027, size: 0x8, addend: 0x0, symName: __ZNSt3__112basic_stringIcNS_11char_traitsIcEENS_9allocatorIcEEE6appendB8ue170006ERKS5_, symObjAddr: 0x12FCC, symBinAddr: 0x100013A94, symSize: 0x4C }
  - { offsetInCU: 0x2A05C, offset: 0x2A05C, size: 0x8, addend: 0x0, symName: __ZNKSt3__112basic_stringIcNS_11char_traitsIcEENS_9allocatorIcEEE4dataB8ue170006Ev, symObjAddr: 0x13018, symBinAddr: 0x100013AE0, symSize: 0x28 }
  - { offsetInCU: 0x2A082, offset: 0x2A082, size: 0x8, addend: 0x0, symName: __ZNSt3__16chrono8durationIxNS_5ratioILl1ELl1000EEEE4zeroB8ue170006Ev, symObjAddr: 0x13070, symBinAddr: 0x100013B38, symSize: 0x3C }
  - { offsetInCU: 0x2A096, offset: 0x2A096, size: 0x8, addend: 0x0, symName: __ZNSt3__16chrono8durationIxNS_5ratioILl1ELl1000000000EEEEppB8ue170006Ev, symObjAddr: 0x13144, symBinAddr: 0x100013C0C, symSize: 0x20 }
  - { offsetInCU: 0x2A0BC, offset: 0x2A0BC, size: 0x8, addend: 0x0, symName: __ZNSt3__16chrono8durationIxNS_5ratioILl1ELl1000000000EEEE3maxB8ue170006Ev, symObjAddr: 0x13164, symBinAddr: 0x100013C2C, symSize: 0x3C }
  - { offsetInCU: 0x2A0DA, offset: 0x2A0DA, size: 0x8, addend: 0x0, symName: __ZNKSt3__16chrono13__duration_ltINS0_8durationIxNS_5ratioILl1ELl1000EEEEES5_EclB8ue170006ERKS5_S8_, symObjAddr: 0x131D4, symBinAddr: 0x100013C9C, symSize: 0x4C }
  - { offsetInCU: 0x2A11E, offset: 0x2A11E, size: 0x8, addend: 0x0, symName: __ZNKSt3__16chrono8durationIxNS_5ratioILl1ELl1000EEEE5countB8ue170006Ev, symObjAddr: 0x13220, symBinAddr: 0x100013CE8, symSize: 0x18 }
  - { offsetInCU: 0x2A144, offset: 0x2A144, size: 0x8, addend: 0x0, symName: __ZNSt3__16chrono15duration_valuesIxE4zeroB8ue170006Ev, symObjAddr: 0x13238, symBinAddr: 0x100013D00, symSize: 0x8 }
  - { offsetInCU: 0x2A163, offset: 0x2A163, size: 0x8, addend: 0x0, symName: __ZNSt3__16chrono8durationIxNS_5ratioILl1ELl1000EEEEC1B8ue170006IxEERKT_PNS_9enable_ifIXaasr14is_convertibleIS8_xEE5valueooL_ZNS_17integral_constantIbLb0EE5valueEEntsr23treat_as_floating_pointIS6_EE5valueEvE4typeE, symObjAddr: 0x13240, symBinAddr: 0x100013D08, symSize: 0x3C }
  - { offsetInCU: 0x2A1AF, offset: 0x2A1AF, size: 0x8, addend: 0x0, symName: __ZNSt3__16chrono8durationIxNS_5ratioILl1ELl1000EEEEC2B8ue170006IxEERKT_PNS_9enable_ifIXaasr14is_convertibleIS8_xEE5valueooL_ZNS_17integral_constantIbLb0EE5valueEEntsr23treat_as_floating_pointIS6_EE5valueEvE4typeE, symObjAddr: 0x1327C, symBinAddr: 0x100013D44, symSize: 0x28 }
  - { offsetInCU: 0x2A1FB, offset: 0x2A1FB, size: 0x8, addend: 0x0, symName: __ZNSt3__16chrono8durationIeNS_5ratioILl1ELl1000EEEEC1B8ue170006IxS3_EERKNS1_IT_T0_EEPNS_9enable_ifIXaasr13__no_overflowIS7_S3_EE5valueooL_ZNS_17integral_constantIbLb1EE5valueEEaaeqsr13__no_overflowIS7_S3_E4typeE3denLi1Entsr23treat_as_floating_pointIS6_EE5valueEvE4typeE, symObjAddr: 0x1331C, symBinAddr: 0x100013DE4, symSize: 0x3C }
  - { offsetInCU: 0x2A251, offset: 0x2A251, size: 0x8, addend: 0x0, symName: __ZNKSt3__16chrono8durationIeNS_5ratioILl1ELl1000EEEE5countB8ue170006Ev, symObjAddr: 0x13358, symBinAddr: 0x100013E20, symSize: 0x18 }
  - { offsetInCU: 0x2A277, offset: 0x2A277, size: 0x8, addend: 0x0, symName: __ZNSt3__16chrono8durationIeNS_5ratioILl1ELl1000EEEEC1B8ue170006IeNS2_ILl1ELl1EEEEERKNS1_IT_T0_EEPNS_9enable_ifIXaasr13__no_overflowIS8_S3_EE5valueooL_ZNS_17integral_constantIbLb1EE5valueEEaaeqsr13__no_overflowIS8_S3_E4typeE3denLi1Entsr23treat_as_floating_pointIS7_EE5valueEvE4typeE, symObjAddr: 0x13370, symBinAddr: 0x100013E38, symSize: 0x3C }
  - { offsetInCU: 0x2A2CD, offset: 0x2A2CD, size: 0x8, addend: 0x0, symName: __ZNSt3__16chrono8durationIeNS_5ratioILl1ELl1000EEEEC2B8ue170006IxS3_EERKNS1_IT_T0_EEPNS_9enable_ifIXaasr13__no_overflowIS7_S3_EE5valueooL_ZNS_17integral_constantIbLb1EE5valueEEaaeqsr13__no_overflowIS7_S3_E4typeE3denLi1Entsr23treat_as_floating_pointIS6_EE5valueEvE4typeE, symObjAddr: 0x133AC, symBinAddr: 0x100013E74, symSize: 0x48 }
  - { offsetInCU: 0x2A32D, offset: 0x2A32D, size: 0x8, addend: 0x0, symName: __ZNKSt3__16chrono15__duration_castINS0_8durationIxNS_5ratioILl1ELl1000EEEEENS2_IeS4_EENS3_ILl1ELl1EEELb1ELb1EEclB8ue170006ERKS5_, symObjAddr: 0x13424, symBinAddr: 0x100013EEC, symSize: 0x44 }
  - { offsetInCU: 0x2A36C, offset: 0x2A36C, size: 0x8, addend: 0x0, symName: __ZNSt3__16chrono8durationIeNS_5ratioILl1ELl1000EEEEC1B8ue170006IeEERKT_PNS_9enable_ifIXaasr14is_convertibleIS8_eEE5valueooL_ZNS_17integral_constantIbLb1EE5valueEEntsr23treat_as_floating_pointIS6_EE5valueEvE4typeE, symObjAddr: 0x13468, symBinAddr: 0x100013F30, symSize: 0x3C }
  - { offsetInCU: 0x2A3B8, offset: 0x2A3B8, size: 0x8, addend: 0x0, symName: __ZNSt3__16chrono8durationIeNS_5ratioILl1ELl1000EEEEC2B8ue170006IeEERKT_PNS_9enable_ifIXaasr14is_convertibleIS8_eEE5valueooL_ZNS_17integral_constantIbLb1EE5valueEEntsr23treat_as_floating_pointIS6_EE5valueEvE4typeE, symObjAddr: 0x134A4, symBinAddr: 0x100013F6C, symSize: 0x28 }
  - { offsetInCU: 0x2A404, offset: 0x2A404, size: 0x8, addend: 0x0, symName: __ZNSt3__16chrono8durationIeNS_5ratioILl1ELl1000EEEEC2B8ue170006IeNS2_ILl1ELl1EEEEERKNS1_IT_T0_EEPNS_9enable_ifIXaasr13__no_overflowIS8_S3_EE5valueooL_ZNS_17integral_constantIbLb1EE5valueEEaaeqsr13__no_overflowIS8_S3_E4typeE3denLi1Entsr23treat_as_floating_pointIS7_EE5valueEvE4typeE, symObjAddr: 0x134CC, symBinAddr: 0x100013F94, symSize: 0x48 }
  - { offsetInCU: 0x2A45A, offset: 0x2A45A, size: 0x8, addend: 0x0, symName: __ZNKSt3__16chrono8durationIeNS_5ratioILl1ELl1EEEE5countB8ue170006Ev, symObjAddr: 0x13590, symBinAddr: 0x100014058, symSize: 0x18 }
  - { offsetInCU: 0x2A480, offset: 0x2A480, size: 0x8, addend: 0x0, symName: __ZNSt3__16chrono8durationIxNS_5ratioILl1ELl1000000000EEEEC1B8ue170006IxEERKT_PNS_9enable_ifIXaasr14is_convertibleIS8_xEE5valueooL_ZNS_17integral_constantIbLb0EE5valueEEntsr23treat_as_floating_pointIS6_EE5valueEvE4typeE, symObjAddr: 0x135F4, symBinAddr: 0x1000140BC, symSize: 0x3C }
  - { offsetInCU: 0x2A4CC, offset: 0x2A4CC, size: 0x8, addend: 0x0, symName: __ZNSt3__16chrono8durationIxNS_5ratioILl1ELl1000000000EEEEC2B8ue170006IxEERKT_PNS_9enable_ifIXaasr14is_convertibleIS8_xEE5valueooL_ZNS_17integral_constantIbLb0EE5valueEEntsr23treat_as_floating_pointIS6_EE5valueEvE4typeE, symObjAddr: 0x13630, symBinAddr: 0x1000140F8, symSize: 0x28 }
  - { offsetInCU: 0x2A518, offset: 0x2A518, size: 0x8, addend: 0x0, symName: __ZNKSt3__16chrono8durationIxNS_5ratioILl1ELl1000000000EEEE5countB8ue170006Ev, symObjAddr: 0x136C4, symBinAddr: 0x10001418C, symSize: 0x18 }
  - { offsetInCU: 0x2A53E, offset: 0x2A53E, size: 0x8, addend: 0x0, symName: __ZNSt3__16chrono8durationIxNS_5ratioILl1ELl1000000000EEEEC1B8ue170006IxNS2_ILl1ELl1000EEEEERKNS1_IT_T0_EEPNS_9enable_ifIXaasr13__no_overflowIS8_S3_EE5valueooL_ZNS_17integral_constantIbLb0EE5valueEEaaeqsr13__no_overflowIS8_S3_E4typeE3denLi1Entsr23treat_as_floating_pointIS7_EE5valueEvE4typeE, symObjAddr: 0x136DC, symBinAddr: 0x1000141A4, symSize: 0x3C }
  - { offsetInCU: 0x2A594, offset: 0x2A594, size: 0x8, addend: 0x0, symName: __ZNSt3__16chrono8durationIxNS_5ratioILl1ELl1000000000EEEEC2B8ue170006IxNS2_ILl1ELl1000EEEEERKNS1_IT_T0_EEPNS_9enable_ifIXaasr13__no_overflowIS8_S3_EE5valueooL_ZNS_17integral_constantIbLb0EE5valueEEaaeqsr13__no_overflowIS8_S3_E4typeE3denLi1Entsr23treat_as_floating_pointIS7_EE5valueEvE4typeE, symObjAddr: 0x13718, symBinAddr: 0x1000141E0, symSize: 0x50 }
  - { offsetInCU: 0x2A5EA, offset: 0x2A5EA, size: 0x8, addend: 0x0, symName: __ZNSt3__16chrono15duration_valuesIxE3maxB8ue170006Ev, symObjAddr: 0x13768, symBinAddr: 0x100014230, symSize: 0x14 }
  - { offsetInCU: 0x2A5FE, offset: 0x2A5FE, size: 0x8, addend: 0x0, symName: __ZNSt3__114numeric_limitsIxE3maxB8ue170006Ev, symObjAddr: 0x1377C, symBinAddr: 0x100014244, symSize: 0x14 }
  - { offsetInCU: 0x2A612, offset: 0x2A612, size: 0x8, addend: 0x0, symName: __ZNSt3__123__libcpp_numeric_limitsIxLb1EE3maxB8ue170006Ev, symObjAddr: 0x13790, symBinAddr: 0x100014258, symSize: 0x8 }
  - { offsetInCU: 0x2A626, offset: 0x2A626, size: 0x8, addend: 0x0, symName: __ZN5DequeINSt3__112basic_stringIcNS0_11char_traitsIcEENS0_9allocatorIcEEEEEC2Ev, symObjAddr: 0x13798, symBinAddr: 0x100014260, symSize: 0x120 }
  - { offsetInCU: 0x2A650, offset: 0x2A650, size: 0x8, addend: 0x0, symName: __ZN5DequeINSt3__112basic_stringIcNS0_11char_traitsIcEENS0_9allocatorIcEEEEED2Ev, symObjAddr: 0x138B8, symBinAddr: 0x100014380, symSize: 0xB0 }
  - { offsetInCU: 0x2A67A, offset: 0x2A67A, size: 0x8, addend: 0x0, symName: __ZN5DequeINSt3__112basic_stringIcNS0_11char_traitsIcEENS0_9allocatorIcEEEEE4fullEv, symObjAddr: 0x13968, symBinAddr: 0x100014430, symSize: 0x28 }
  - { offsetInCU: 0x2A6A0, offset: 0x2A6A0, size: 0x8, addend: 0x0, symName: __ZN5DequeINSt3__112basic_stringIcNS0_11char_traitsIcEENS0_9allocatorIcEEEEE6resizeEv, symObjAddr: 0x13990, symBinAddr: 0x100014458, symSize: 0x2B0 }
  - { offsetInCU: 0x2A728, offset: 0x2A728, size: 0x8, addend: 0x0, symName: __ZNSt3__112basic_stringIcNS_11char_traitsIcEENS_9allocatorIcEEEC2B8ue170006ILi0EEEPKc, symObjAddr: 0x13C40, symBinAddr: 0x100014708, symSize: 0x58 }
  - { offsetInCU: 0x2A767, offset: 0x2A767, size: 0x8, addend: 0x0, symName: __ZN5DequeIiEC2Ev, symObjAddr: 0x13C98, symBinAddr: 0x100014760, symSize: 0x88 }
  - { offsetInCU: 0x2A791, offset: 0x2A791, size: 0x8, addend: 0x0, symName: __ZN5DequeIiED2Ev, symObjAddr: 0x13D20, symBinAddr: 0x1000147E8, symSize: 0x50 }
  - { offsetInCU: 0x2A7BB, offset: 0x2A7BB, size: 0x8, addend: 0x0, symName: __ZN5DequeIiE6resizeEv, symObjAddr: 0x13D70, symBinAddr: 0x100014838, symSize: 0x1A0 }
  - { offsetInCU: 0x2A843, offset: 0x2A843, size: 0x8, addend: 0x0, symName: __ZN5DequeI4CardEC2Ev, symObjAddr: 0x13F10, symBinAddr: 0x1000149D8, symSize: 0x124 }
  - { offsetInCU: 0x2A86D, offset: 0x2A86D, size: 0x8, addend: 0x0, symName: __ZN5DequeI4CardED2Ev, symObjAddr: 0x14034, symBinAddr: 0x100014AFC, symSize: 0x50 }
  - { offsetInCU: 0x2A897, offset: 0x2A897, size: 0x8, addend: 0x0, symName: __ZN5DequeI4CardE4fullEv, symObjAddr: 0x14084, symBinAddr: 0x100014B4C, symSize: 0x28 }
  - { offsetInCU: 0x2A8BD, offset: 0x2A8BD, size: 0x8, addend: 0x0, symName: __ZN5DequeI4CardE6resizeEv, symObjAddr: 0x140AC, symBinAddr: 0x100014B74, symSize: 0x26C }
  - { offsetInCU: 0x2A93D, offset: 0x2A93D, size: 0x8, addend: 0x0, symName: __ZN5DequeIiEC2Em, symObjAddr: 0x14318, symBinAddr: 0x100014DE0, symSize: 0xA4 }
  - { offsetInCU: 0x2A975, offset: 0x2A975, size: 0x8, addend: 0x0, symName: __ZN5DequeIiEC2EPim, symObjAddr: 0x143BC, symBinAddr: 0x100014E84, symSize: 0x168 }
  - { offsetInCU: 0x2A9F3, offset: 0x2A9F3, size: 0x8, addend: 0x0, symName: __ZN5StackINSt3__112basic_stringIcNS0_11char_traitsIcEENS0_9allocatorIcEEEEEC2Em, symObjAddr: 0x14524, symBinAddr: 0x100014FEC, symSize: 0x64 }
  - { offsetInCU: 0x2AA2B, offset: 0x2AA2B, size: 0x8, addend: 0x0, symName: __ZN5DequeINSt3__112basic_stringIcNS0_11char_traitsIcEENS0_9allocatorIcEEEEE11setCapacityEm, symObjAddr: 0x14588, symBinAddr: 0x100015050, symSize: 0x20 }
  - { offsetInCU: 0x2AA5F, offset: 0x2AA5F, size: 0x8, addend: 0x0, symName: __ZN5DequeINSt3__112basic_stringIcNS0_11char_traitsIcEENS0_9allocatorIcEEEEE11getCapacityEv, symObjAddr: 0x145A8, symBinAddr: 0x100015070, symSize: 0x18 }
  - { offsetInCU: 0x2AA85, offset: 0x2AA85, size: 0x8, addend: 0x0, symName: __ZN5DequeINSt3__112basic_stringIcNS0_11char_traitsIcEENS0_9allocatorIcEEEEE9get_arrayEv, symObjAddr: 0x145C0, symBinAddr: 0x100015088, symSize: 0x18 }
  - { offsetInCU: 0x2AAAB, offset: 0x2AAAB, size: 0x8, addend: 0x0, symName: __ZN5DequeINSt3__112basic_stringIcNS0_11char_traitsIcEENS0_9allocatorIcEEEEE10show_frontEv, symObjAddr: 0x145D8, symBinAddr: 0x1000150A0, symSize: 0x50 }
  - { offsetInCU: 0x2AAD1, offset: 0x2AAD1, size: 0x8, addend: 0x0, symName: __ZN5DequeINSt3__112basic_stringIcNS0_11char_traitsIcEENS0_9allocatorIcEEEEE10array_sizeEv, symObjAddr: 0x14628, symBinAddr: 0x1000150F0, symSize: 0x18 }
  - { offsetInCU: 0x2AAF7, offset: 0x2AAF7, size: 0x8, addend: 0x0, symName: __ZN5QueueIiEC2Em, symObjAddr: 0x14640, symBinAddr: 0x100015108, symSize: 0x64 }
  - { offsetInCU: 0x2AB2F, offset: 0x2AB2F, size: 0x8, addend: 0x0, symName: __ZN5DequeIiE11setCapacityEm, symObjAddr: 0x146A4, symBinAddr: 0x10001516C, symSize: 0x20 }
  - { offsetInCU: 0x2AB63, offset: 0x2AB63, size: 0x8, addend: 0x0, symName: __ZN5DequeIiE9get_arrayEv, symObjAddr: 0x146C4, symBinAddr: 0x10001518C, symSize: 0x18 }
  - { offsetInCU: 0x603D, offset: 0x30F05, size: 0x8, addend: 0x0, symName: __ZN4TaskC2Ev, symObjAddr: 0x0, symBinAddr: 0x1000151A4, symSize: 0x3C }
  - { offsetInCU: 0x6069, offset: 0x30F31, size: 0x8, addend: 0x0, symName: __ZN4TaskC1Ev, symObjAddr: 0x68, symBinAddr: 0x1000151E0, symSize: 0x2C }
  - { offsetInCU: 0x6095, offset: 0x30F5D, size: 0x8, addend: 0x0, symName: __ZN4TaskC2EiNSt3__112basic_stringIcNS0_11char_traitsIcEENS0_9allocatorIcEEEES6_i, symObjAddr: 0x94, symBinAddr: 0x10001520C, symSize: 0xC0 }
  - { offsetInCU: 0x60FB, offset: 0x30FC3, size: 0x8, addend: 0x0, symName: __ZN4TaskC1EiNSt3__112basic_stringIcNS0_11char_traitsIcEENS0_9allocatorIcEEEES6_i, symObjAddr: 0x154, symBinAddr: 0x1000152CC, symSize: 0x4C }
  - { offsetInCU: 0x6161, offset: 0x31029, size: 0x8, addend: 0x0, symName: __ZN4Task6getPIDEv, symObjAddr: 0x1A0, symBinAddr: 0x100015318, symSize: 0x18 }
  - { offsetInCU: 0x6189, offset: 0x31051, size: 0x8, addend: 0x0, symName: __ZN4Task10getCommandEv, symObjAddr: 0x1B8, symBinAddr: 0x100015330, symSize: 0x3C }
  - { offsetInCU: 0x61B1, offset: 0x31079, size: 0x8, addend: 0x0, symName: __ZN4Task7getTimeEv, symObjAddr: 0x1F4, symBinAddr: 0x10001536C, symSize: 0x3C }
  - { offsetInCU: 0x61D8, offset: 0x310A0, size: 0x8, addend: 0x0, symName: __ZN4Task6getMemEv, symObjAddr: 0x230, symBinAddr: 0x1000153A8, symSize: 0x18 }
  - { offsetInCU: 0x6200, offset: 0x310C8, size: 0x8, addend: 0x0, symName: __ZN4Task7setTimeENSt3__112basic_stringIcNS0_11char_traitsIcEENS0_9allocatorIcEEEE, symObjAddr: 0x248, symBinAddr: 0x1000153C0, symSize: 0x30 }
  - { offsetInCU: 0x6237, offset: 0x310FF, size: 0x8, addend: 0x0, symName: __ZN4Task6setMemEi, symObjAddr: 0x278, symBinAddr: 0x1000153F0, symSize: 0x20 }
  - { offsetInCU: 0x626D, offset: 0x31135, size: 0x8, addend: 0x0, symName: __ZlsRNSt3__113basic_ostreamIcNS_11char_traitsIcEEEERK4Task, symObjAddr: 0x298, symBinAddr: 0x100015410, symSize: 0x88 }
  - { offsetInCU: 0x3E14, offset: 0x34FBA, size: 0x8, addend: 0x0, symName: __ZNSt3__1lsB8ue170006INS_11char_traitsIcEEEERNS_13basic_ostreamIcT_EES6_c, symObjAddr: 0x2A8, symBinAddr: 0x1000156F8, symSize: 0x34 }
  - { offsetInCU: 0x5FA9, offset: 0x3714F, size: 0x8, addend: 0x0, symName: __ZN4CardC2Ecc, symObjAddr: 0x0, symBinAddr: 0x100015498, symSize: 0x30 }
  - { offsetInCU: 0x5FF1, offset: 0x37197, size: 0x8, addend: 0x0, symName: __ZN4CardC1Ecc, symObjAddr: 0x30, symBinAddr: 0x1000154C8, symSize: 0x3C }
  - { offsetInCU: 0x6039, offset: 0x371DF, size: 0x8, addend: 0x0, symName: __ZN4CardC2ERKS_, symObjAddr: 0x6C, symBinAddr: 0x100015504, symSize: 0x40 }
  - { offsetInCU: 0x6073, offset: 0x37219, size: 0x8, addend: 0x0, symName: __ZN4CardC1ERKS_, symObjAddr: 0xAC, symBinAddr: 0x100015544, symSize: 0x34 }
  - { offsetInCU: 0x60AD, offset: 0x37253, size: 0x8, addend: 0x0, symName: __ZN4CardC2Ev, symObjAddr: 0xE0, symBinAddr: 0x100015578, symSize: 0x20 }
  - { offsetInCU: 0x60D9, offset: 0x3727F, size: 0x8, addend: 0x0, symName: __ZN4CardC1Ev, symObjAddr: 0x100, symBinAddr: 0x100015598, symSize: 0x2C }
  - { offsetInCU: 0x6105, offset: 0x372AB, size: 0x8, addend: 0x0, symName: __ZN4Card7getSuitEv, symObjAddr: 0x12C, symBinAddr: 0x1000155C4, symSize: 0x18 }
  - { offsetInCU: 0x612D, offset: 0x372D3, size: 0x8, addend: 0x0, symName: __ZN4Card8getValueEv, symObjAddr: 0x144, symBinAddr: 0x1000155DC, symSize: 0x18 }
  - { offsetInCU: 0x6155, offset: 0x372FB, size: 0x8, addend: 0x0, symName: __ZN4Card8isFaceUpEv, symObjAddr: 0x15C, symBinAddr: 0x1000155F4, symSize: 0x1C }
  - { offsetInCU: 0x617D, offset: 0x37323, size: 0x8, addend: 0x0, symName: __ZN4Card10turnFaceUpEv, symObjAddr: 0x178, symBinAddr: 0x100015610, symSize: 0x1C }
  - { offsetInCU: 0x61A5, offset: 0x3734B, size: 0x8, addend: 0x0, symName: __ZN4Card12turnFaceDownEv, symObjAddr: 0x194, symBinAddr: 0x10001562C, symSize: 0x18 }
  - { offsetInCU: 0x61CD, offset: 0x37373, size: 0x8, addend: 0x0, symName: __ZN4CardeqERKS_, symObjAddr: 0x1AC, symBinAddr: 0x100015644, symSize: 0x68 }
  - { offsetInCU: 0x6203, offset: 0x373A9, size: 0x8, addend: 0x0, symName: __ZlsRNSt3__113basic_ostreamIcNS_11char_traitsIcEEEERK4Card, symObjAddr: 0x214, symBinAddr: 0x1000156AC, symSize: 0x4C }
...
